ccopy_reg
_reconstructor
p0
(chelper
flex_classifier
p1
c__builtin__
object
p2
Ntp3
Rp4
(dp5
S'feasibiliy'
p6
I01
sS'min_precision'
p7
F0.35
sS'maximize'
p8
S'recall'
p9
sS'threshold'
p10
cnumpy.core.multiarray
scalar
p11
(cnumpy
dtype
p12
(S'f8'
p13
I0
I1
tp14
Rp15
(I3
S'<'
p16
NNNI-1
I-1
I0
tp17
bS'c7\xf6\x12\x10\x89\xf8\xbf'
p18
tp19
Rp20
sS'method'
p21
S'decision_function'
p22
sS'min_recall'
p23
F0.4
sS'classifier'
p24
g0
(csklearn.linear_model.stochastic_gradient
SGDClassifier
p25
g2
Ntp26
Rp27
(dp28
S't_'
p29
F646.0
sS'n_jobs'
p30
NsS'shuffle'
p31
I01
sS'verbose'
p32
I0
sS'classes_'
p33
cnumpy.core.multiarray
_reconstruct
p34
(cnumpy
ndarray
p35
(I0
tp36
S'b'
p37
tp38
Rp39
(I1
(L2L
tp40
g15
I00
S'\x00\x00\x00\x00\x00\x00\x00\x00\x00\x00\x00\x00\x00\x00\xf0?'
p41
tp42
bsS'_tol'
p43
NsS'class_weight'
p44
NsS'n_iter_no_change'
p45
I5
sS'fit_intercept'
p46
I01
sS'n_iter_'
p47
I5
sS'penalty'
p48
S'l2'
p49
sS'random_state'
p50
I77
sS'_sklearn_version'
p51
S'0.20.3'
p52
sS'_expanded_class_weight'
p53
g34
(g35
(I0
tp54
g37
tp55
Rp56
(I1
(L2L
tp57
g15
I00
S'\x00\x00\x00\x00\x00\x00\xf0?\x00\x00\x00\x00\x00\x00\xf0?'
p58
tp59
bsS'tol'
p60
NsS'validation_fraction'
p61
F0.1
sS'C'
p62
F1.0
sS'n_iter'
p63
NsS'epsilon'
p64
F0.1
sS'learning_rate'
p65
S'optimal'
p66
sS'max_iter'
p67
NsS'coef_'
p68
g34
(g35
(I0
tp69
g37
tp70
Rp71
(I1
(L1L
L17L
tp72
g15
I00
S'*-h\x86\x1b\xc7\xb2?J\tv\xd3N\x98\xe2\xbf\xa5\xa46S\xb3>\xf3\xbf\xdb<\x1aG\x88Y\xd6?"\x18\xc0\x89\x96M\xfd?y\x03\xcb\x80\xb4\x04\xf9?P\x9b\xd3\xfc\xd4\xce\xcf\xbfF(o\x1c\xd3\xd3\xcc?%\xdc\xa6\xc4A\x08\xfa\xbf\x90t\x93\xeb\xfc\x7f\xe4\xbf\xfb\x98\xd4\r\xff\xbb\xf4?\x99\xa1\xd3\xdc\x87b\xf4?\x96\xf5\xa2\xaeSO\xe2?\xae/\x8a\xad\x0f\x97\xd8?\x15n\x85x\x0f\x9a\xe2?\x06X\\\\\xe9\x9a\xf7?\xc4\x85Xr\x1e\xda\xe2?'
p73
tp74
bsS'alpha'
p75
g11
(g15
S'\xafb|\x0e\xbf.\x84?'
p76
tp77
Rp78
sS'intercept_'
p79
g34
(g35
(I0
tp80
g37
tp81
Rp82
(I1
(L1L
tp83
g15
I00
S'\x8e\xde\x17K\xc9\xb0 \xc0'
p84
tp85
bsS'_max_iter'
p86
I5
sS'early_stopping'
p87
I00
sS'warm_start'
p88
I00
sS'loss'
p89
S'hinge'
p90
sS'eta0'
p91
F0.0
sS'l1_ratio'
p92
F0.15
sS'average'
p93
I00
sS'power_t'
p94
F0.5
sS'loss_function_'
p95
csklearn.linear_model.sgd_fast
Hinge
p96
(F1.0
tp97
Rp98
sbsb.