(dp0
S'METTS MARK'
p1
(dp2
S'deferral_payments'
p3
F-0.6199759729323067
sS'fromPOI_rate'
p4
F0.9986625631026134
sS'total_payments'
p5
F0.19071972176504376
sS'exercised_stock_options'
p6
F-1.530296482792952
sS'bonus'
p7
F0.7633157406825174
sS'toPOI_rate'
p8
F-0.8792112908735112
sS'restricted_stock_deferred'
p9
F0.3535533873061122
sS'bonus_total_payments_rate'
p10
F1.0168007868224544
sS'total_stock_value'
p11
F-0.2992202797417617
sS'expenses'
p12
F0.9570582411818191
sS'director_fees'
p13
F-0.2731791823540361
sS'other'
p14
F0.14028253037821256
sS'exer_stock_options_total_payments_rate'
p15
F-0.996587696449088
sS'poi'
p16
F0.0
sS'long_term_incentive'
p17
F-1.0220665982659085
sS'shared_receipt_with_poi'
p18
F-0.06271589920167307
sS'restricted_stock'
p19
F0.4413056317302673
sS'deferred_income'
p20
F0.6837486711440917
ssS'BAXTER JOHN C'
p21
(dp22
g3
F1.8235062750712574
sg4
F-0.015881448141292324
sg5
F1.172275876693044
sg6
F1.100093723956339
sg7
F0.9957569221065249
sg8
F0.025002902481447216
sg9
F0.3779644564309431
sg10
F0.059420721361975855
sg11
F1.2797426703406718
sg12
F0.5399023820731746
sg13
F-0.4016096198857647
sg14
F1.475858617620098
sg15
F0.8719103127424396
sg16
F0.0
sg17
F1.346181081803446
sg18
F-0.0024706649494493117
sg19
F1.3657745109456751
sg20
F-1.4511949425068997
ssS'ELLIOTT STEVEN'
p23
(dp24
g3
F-0.5558781513843727
sg4
F-0.015881448141292324
sg5
F-0.006725255793181268
sg6
F1.0157817108176652
sg7
F0.7950914070237868
sg8
F0.025002902481447216
sg9
F0.3779644564309431
sg10
F1.85936297912401
sg11
F1.0318019890698213
sg12
F1.0634104131596898
sg13
F-0.4016096198857647
sg14
F0.7234561382308166
sg15
F1.999436465951138
sg16
F0.0
sg17
F-0.7969981590536745
sg18
F-0.0024706649494493117
sg19
F0.9861019801144901
sg20
F-1.3888051613908983
ssS'CORDES WILLIAM R'
p25
(dp26
g3
F-0.5558781513843727
sg4
F-0.8725617686377882
sg5
F-1.6253624056949656
sg6
F0.5208535517045201
sg7
F-1.0512128304478323
sg8
F-1.7815134893218851
sg9
F0.3779644564309431
sg10
F-0.9692756726288899
sg11
F0.212269847652613
sg12
F-1.1907155482699148
sg13
F-0.4016096198857647
sg14
F-1.0611890122833179
sg15
F-0.8639643817843111
sg16
F0.0
sg17
F-0.7969981590536745
sg18
F-1.7413242060394236
sg19
F0.37320949360978956
sg20
F0.7493539321889346
ssS'HANNON KEVIN P'
p27
(dp28
g3
F-0.6199759729323067
sg4
F0.28091887239184715
sg5
F-0.4876143793136247
sg6
F1.1562596118297184
sg7
F0.9814621120017423
sg8
F1.999711696553417
sg9
F0.3535533873061122
sg10
F2.5328223274726076
sg11
F1.2039030765281429
sg12
F0.45116391536942796
sg13
F-0.2731791823540361
sg14
F0.5088194807435704
sg15
F1.831371382670332
sg16
F1.0
sg17
F1.1479519707976509
sg18
F0.369696050301098
sg19
F0.611469662534919
sg20
F-1.5891399074573038
ssS'MORDAUNT KRISTINA M'
p29
(dp30
g3
F-0.5558781513843727
sg4
F-0.015881448141292324
sg5
F0.32439277074799105
sg6
F-1.2991148386302558
sg7
F0.7831576906770332
sg8
F0.025002902481447216
sg9
F0.3779644564309431
sg10
F0.8639535896275334
sg11
F-0.3137978906877747
sg12
F0.8377586722883302
sg13
F-0.4016096198857647
sg14
F0.36185160199229965
sg15
F-0.8639643817843111
sg16
F0.0
sg17
F-0.7969981590536745
sg18
F-0.0024706649494493117
sg19
F0.16573401294258064
sg20
F0.7493539321889346
ssS'URQUHART JOHN A'
p31
(dp32
g3
F-0.6199759729323067
sg4
F0.047715938705588684
sg5
F-0.5858188375482462
sg6
F-1.530296482792952
sg7
F-1.2007003315958937
sg8
F0.0535947909913842
sg9
F0.3535533873061122
sg10
F-1.0917244814899822
sg11
F-2.1551277242844487
sg12
F1.4893691150833583
sg13
F3.660596914166873
sg14
F-1.248839269627727
sg15
F-0.996587696449088
sg16
F0.0
sg17
F-1.0220665982659085
sg18
F-0.008922446580896817
sg19
F-1.6699789146305961
sg20
F-1.4223839852936717
ssS'MCMAHON JEFFREY'
p33
(dp34
g3
F-0.5558781513843727
sg4
F-0.20705241676807837
sg5
F1.0321702613903185
sg6
F0.6423541413269387
sg7
F1.1238728158699212
sg8
F1.912362520304341
sg9
F0.3779644564309431
sg10
F1.0642115628323034
sg11
F0.39586710859056573
sg12
F1.2264302537934932
sg13
F-0.4016096198857647
sg14
F1.1846942718508546
sg15
F-0.1634331689002783
sg16
F0.0
sg17
F1.2915449001254564
sg18
F1.1973097377239375
sg19
F0.5074717972564297
sg20
F0.7493539321889346
ssS'HORTON STANLEY C'
p35
(dp36
g3
F1.8315029890686212
sg4
F-0.5275019153720479
sg5
F0.9184143756148344
sg6
F1.0327479608309764
sg7
F-1.0512128304478323
sg8
F-1.5567641413752769
sg9
F0.3779644564309431
sg10
F-0.9692756726288899
sg11
F1.0747150465339637
sg12
F-1.1907155482699148
sg13
F-0.4016096198857647
sg14
F-1.0611890122833179
sg15
F1.1154158040030346
sg16
F0.0
sg17
F-0.7969981590536745
sg18
F0.2350451984658184
sg19
F1.0474237511783626
sg20
F0.7493539321889346
ssS'PIPER GREGORY F'
p37
(dp38
g3
F1.6548458232391365
sg4
F1.0756971384885141
sg5
F0.5160818594419951
sg6
F0.4286603006055992
sg7
F0.6713216623793076
sg8
F0.8418108701819338
sg9
F-2.8286414191760683
sg10
F0.09874060073145216
sg11
F-0.099513700467067
sg12
F0.5588262242533787
sg13
F-0.2731791823540361
sg14
F-0.015333181408167086
sg15
F0.06217234228417517
sg16
F0.0
sg17
F-1.0220665982659085
sg18
F-0.004636951053978541
sg19
F0.29119075873333816
sg20
F-1.4168921719405152
ssS'HUMPHREY GENE E'
p39
(dp40
g3
F1.6712487040799084
sg4
F1.8123924864936551
sg5
F0.9581301053826815
sg6
F0.7800182601532911
sg7
F-1.2007003315958937
sg8
F2.208284044225984
sg9
F0.3535533873061122
sg10
F-1.0917244814899822
sg11
F0.45008454512403295
sg12
F-0.2611956984750705
sg13
F-0.2731791823540361
sg14
F-1.248839269627727
sg15
F0.3316008762584618
sg16
F0.0
sg17
F-1.0220665982659085
sg18
F-1.4215278695091584
sg19
F-1.6699789146305961
sg20
F0.6837486711440917
ssS'NOLES JAMES L'
p41
(dp42
g3
F1.8177554576050998
sg4
F-0.015881448141292324
sg5
F0.3940537470289007
sg6
F-1.2991148386302558
sg7
F-1.0512128304478323
sg8
F0.025002902481447216
sg9
F-2.645708274153071
sg10
F-0.9692756726288899
sg11
F-0.14316553153821762
sg12
F-1.1907155482699148
sg13
F-0.4016096198857647
sg14
F-1.0611890122833179
sg15
F-0.8639643817843111
sg16
F0.0
sg17
F-0.7969981590536745
sg18
F-0.0024706649494493117
sg19
F0.43827947004897827
sg20
F0.7493539321889346
ssS'BLACHMAN JEREMY M'
p43
(dp44
g3
F-0.6199759729323067
sg4
F-1.0784991252664076
sg5
F0.6226129492257962
sg6
F0.38124155945548366
sg7
F0.8445334985323335
sg8
F0.32873563017270835
sg9
F0.3535533873061122
sg10
F0.6987337707574977
sg11
F-0.05764791340020167
sg12
F0.8956168243622797
sg13
F-0.2731791823540361
sg14
F-0.2160371313269277
sg15
F-0.12683719236286592
sg16
F0.0
sg17
F1.0438531914665254
sg18
F1.4921820014434697
sg19
F-0.0013789688013350525
sg20
F0.6837486711440917
ssS'SUNDE MARTIN'
p45
(dp46
g3
F-0.6199759729323067
sg4
F-0.7709546021184064
sg5
F0.43451883721153517
sg6
F-1.530296482792952
sg7
F0.7990071338730871
sg8
F1.4018726585425785
sg9
F0.3535533873061122
sg10
F0.7756436900408441
sg11
F-0.21470068654180793
sg12
F-1.501339223082566
sg13
F-0.2731791823540361
sg14
F0.968324103429549
sg15
F-0.996587696449088
sg16
F0.0
sg17
F0.9568335069581375
sg18
F1.6513044895481708
sg19
F0.5200273214185077
sg20
F0.6837486711440917
ssS'GIBBS DANA R'
p47
(dp48
g3
F1.6378353549696145
sg4
F-2.0207613937407536
sg5
F0.13336281343479253
sg6
F0.7686847676987916
sg7
F-1.2007003315958937
sg8
F-1.4370165082991035
sg9
F0.3535533873061122
sg10
F-1.0917244814899822
sg11
F0.4316533067647736
sg12
F-1.501339223082566
sg13
F-0.2731791823540361
sg14
F-1.248839269627727
sg15
F1.1411176893557438
sg16
F0.0
sg17
F0.9520005087255644
sg18
F-2.092991626507365
sg19
F-1.6699789146305961
sg20
F0.6837486711440917
ssS'LOWRY CHARLES P'
p49
(dp50
g3
F-0.6199759729323067
sg4
F0.047715938705588684
sg5
F-2.044597651716298
sg6
F0.15252095576802208
sg7
F-1.2007003315958937
sg8
F0.0535947909913842
sg9
F-2.82833132437775
sg10
F-1.0917244814899822
sg11
F-0.49859638497761916
sg12
F-1.501339223082566
sg13
F-0.2731791823540361
sg14
F-1.248839269627727
sg15
F-0.996587696449088
sg16
F0.0
sg17
F-1.0220665982659085
sg18
F-0.008922446580896817
sg19
F-0.0727250057664307
sg20
F0.6837486711440917
ssS'COLWELL WESLEY'
p51
(dp52
g3
F1.7482854013509699
sg4
F2.0480261968631046
sg5
F0.6266397335373132
sg6
F-1.2991148386302558
sg7
F0.9957569221065249
sg8
F0.9309590435423291
sg9
F0.3779644564309431
sg10
F1.2916926182549222
sg11
F0.06865462876910805
sg12
F0.6387543561839388
sg13
F-0.4016096198857647
sg14
F1.0330038428679496
sg15
F-0.8639643817843111
sg16
F1.0
sg17
F-0.7969981590536745
sg18
F0.2955709728607702
sg19
F0.5924076538459954
sg20
F-1.3280150689203136
ssS'MULLER MARK S'
p53
(dp54
g3
F1.6490449485618928
sg4
F1.9795990999437447
sg5
F0.9849039035805605
sg6
F0.4919656971481009
sg7
F0.9059909469690561
sg8
F-1.4370165082991035
sg9
F0.3535533873061122
sg10
F0.4827249010482896
sg11
F0.15927457560053
sg12
F-1.501339223082566
sg13
F-0.2731791823540361
sg14
F0.02252454686719415
sg15
F-0.21168390890017025
sg16
F0.0
sg17
F1.1581425448081386
sg18
F-1.4447457097235947
sg19
F0.23994101765486
sg20
F-1.5497048564191254
ssS'JACKSON CHARLENE R'
p55
(dp56
g3
F-0.5558781513843727
sg4
F1.7184413281583863
sg5
F0.2816244782647125
sg6
F0.2512368634637606
sg7
F0.7410311805826331
sg8
F1.2507274844008902
sg9
F0.3779644564309431
sg10
F0.7353250569019146
sg11
F0.08221607178840304
sg12
F0.5160183602613095
sg13
F-0.4016096198857647
sg14
F0.4536761815453891
sg15
F-0.03669183356227215
sg16
F0.0
sg17
F-0.7969981590536745
sg18
F-1.450188931794485
sg19
F0.49515121581908345
sg20
F0.7493539321889346
ssS'WESTFAHL RICHARD K'
p57
(dp58
g3
F-0.6199759729323067
sg4
F0.047715938705588684
sg5
F-0.005219743346238326
sg6
F-1.530296482792952
sg7
F-1.2007003315958937
sg8
F0.0535947909913842
sg9
F0.3535533873061122
sg10
F-1.0917244814899822
sg11
F-0.4845112043347111
sg12
F0.6478183586828856
sg13
F-0.2731791823540361
sg14
F1.2323314013111506
sg15
F-0.996587696449088
sg16
F0.0
sg17
F0.860206284307541
sg18
F-0.008922446580896817
sg19
F0.2661115186620982
sg20
F-1.3431705706600277
ssS'WALTERS GARETH W'
p59
(dp60
g3
F1.5684525608403275
sg4
F0.047715938705588684
sg5
F-0.9315423778795892
sg6
F0.48320940562258563
sg7
F-1.2007003315958937
sg8
F0.0535947909913842
sg9
F0.3535533873061122
sg10
F-1.0917244814899822
sg11
F-0.01719276321722481
sg12
F0.44781565829682074
sg13
F-0.2731791823540361
sg14
F-1.248839269627727
sg15
F1.7597118194246089
sg16
F0.0
sg17
F-1.0220665982659085
sg18
F-0.008922446580896817
sg19
F-1.6699789146305961
sg20
F0.6837486711440917
ssS'WALLS JR ROBERT H'
p61
(dp62
g3
F-0.6199759729323067
sg4
F-0.011434079635465657
sg5
F0.540595650839173
sg6
F1.0482848478786488
sg7
F0.8445334985323335
sg8
F-1.4370165082991035
sg9
F0.3535533873061122
sg10
F0.8213648055142372
sg11
F1.138315287204208
sg12
F0.6389872398282566
sg13
F-0.2731791823540361
sg14
F-1.0518786146510508
sg15
F1.172070668570907
sg16
F0.0
sg17
F0.9765831435794927
sg18
F-1.061658507419495
sg19
F0.9079165928236649
sg20
F0.6837486711440917
ssS'KITCHEN LOUISE'
p63
(dp64
g3
F-0.6199759729323067
sg4
F0.260031609969657
sg5
F1.0527651789408272
sg6
F-0.25538996227699096
sg7
F1.164896704119388
sg8
F0.0535947909913842
sg9
F0.3535533873061122
sg10
F1.50334272550811
sg11
F-0.3301443921941104
sg12
F-0.21640706895396916
sg13
F-0.2731791823540361
sg14
F0.9340382274939001
sg15
F-0.9235892782236024
sg16
F0.0
sg17
F-1.0220665982659085
sg18
F2.2839118119057273
sg19
F0.3444587754003546
sg20
F0.6837486711440917
ssS'PRENTICE JAMES'
p65
(dp66
g3
F1.8137491883228618
sg4
F-0.015881448141292324
sg5
F0.28925767551784176
sg6
F0.5910307954423168
sg7
F-1.0512128304478323
sg8
F0.025002902481447216
sg9
F0.3779644564309431
sg10
F-0.9692756726288899
sg11
F0.232321244800957
sg12
F-1.1907155482699148
sg13
F-0.4016096198857647
sg14
F-1.0611890122833179
sg15
F1.0754521633458916
sg16
F0.0
sg17
F-0.7969981590536745
sg18
F-0.0024706649494493117
sg19
F0.16619287674468877
sg20
F0.7493539321889346
ssS'BELFER ROBERT'
p67
(dp68
g3
F-0.5558781513843727
sg4
F-0.015881448141292324
sg5
F-0.887429727755356
sg6
F-1.2991148386302558
sg7
F-1.0512128304478323
sg8
F0.025002902481447216
sg9
F-2.6447624455242353
sg10
F-0.9692756726288899
sg11
F-1.7836214628190477
sg12
F0.24441483327496152
sg13
F2.4905095184648225
sg14
F-1.0611890122833179
sg15
F-0.8639643817843111
sg16
F0.0
sg17
F-0.7969981590536745
sg18
F-0.0024706649494493117
sg19
F-0.2750188898533771
sg20
F-1.3056609112774742
ssS'SHANKMAN JEFFREY A'
p69
(dp70
g3
F-0.6199759729323067
sg4
F0.20477560954923463
sg5
F0.9416442767043687
sg6
F0.604200123900208
sg7
F1.0530009011078765
sg8
F-0.9314278392609749
sg9
F0.3535533873061122
sg10
F1.1829608782364804
sg11
F0.38830027164464614
sg12
F1.3325593380126404
sg13
F-0.2731791823540361
sg14
F0.0667956045947985
sg15
F0.017529027741638847
sg16
F0.0
sg17
F0.9804795802065978
sg18
F1.0433867195831776
sg19
F0.47384090009743796
sg20
F0.6837486711440917
ssS'WODRASKA JOHN'
p71
(dp72
g3
F-0.5558781513843727
sg4
F-0.015881448141292324
sg5
F-0.037530761303033545
sg6
F-1.2991148386302558
sg7
F-1.0512128304478323
sg8
F0.025002902481447216
sg9
F0.3779644564309431
sg10
F-0.9692756726288899
sg11
F-1.7836214628190477
sg12
F-1.1907155482699148
sg13
F-0.4016096198857647
sg14
F1.1217946321993035
sg15
F-0.8639643817843111
sg16
F0.0
sg17
F-0.7969981590536745
sg18
F-0.0024706649494493117
sg19
F-1.560142189471907
sg20
F0.7493539321889346
ssS'BERGSIEKER RICHARD P'
p73
(dp74
g3
F-0.6199759729323067
sg4
F-1.050191620363448
sg5
F-0.11960487238819306
sg6
F-1.530296482792952
sg7
F0.5680201247737261
sg8
F-1.4370165082991035
sg9
F0.3535533873061122
sg10
F0.6523949622396368
sg11
F-0.24287513401479396
sg12
F0.7128285094940116
sg13
F-0.2731791823540361
sg14
F1.245440503194193
sg15
F-0.996587696449088
sg16
F0.0
sg17
F0.805574176979829
sg18
F-1.0064917605442243
sg19
F0.49386444061933554
sg20
F-1.5370092747699813
ssS'MEYER ROCKFORD G'
p75
(dp76
g3
F1.6636949817908728
sg4
F-2.0207613937407536
sg5
F0.5599763908483609
sg6
F0.23901746758710465
sg7
F-1.2007003315958937
sg8
F-1.4370165082991035
sg9
F0.3535533873061122
sg10
F-1.0917244814899822
sg11
F-0.05681551060576479
sg12
F-1.501339223082566
sg13
F-0.2731791823540361
sg14
F-1.248839269627727
sg15
F-0.32844697186784927
sg16
F0.0
sg17
F-1.0220665982659085
sg18
F-2.1059962392931575
sg19
F0.3411230690194157
sg20
F0.6837486711440917
ssS'BIBI PHILIPPE A'
p77
(dp78
g3
F-0.5558781513843727
sg4
F-0.7941259614676758
sg5
F0.7476406469732864
sg6
F0.7099326775398151
sg7
F0.9657947494591663
sg8
F0.4529002458426487
sg9
F0.3779644564309431
sg10
F0.8077763631476459
sg11
F0.43812906768237475
sg12
F0.8640116617090905
sg13
F-0.4016096198857647
sg14
F1.2340610631632951
sg15
F0.48859199635807504
sg16
F0.0
sg17
F1.246379937967981
sg18
F0.4946209402470188
sg19
F0.3655958332675874
sg20
F0.7493539321889346
ssS'PIRO JIM'
p79
(dp80
g3
F-0.5558781513843727
sg4
F-1.8521076988884697
sg5
F-1.6253624056949656
sg6
F-1.2991148386302558
sg7
F-1.0512128304478323
sg8
F-0.8756434088952051
sg9
F0.3779644564309431
sg10
F-0.9692756726288899
sg11
F-0.6876848795816275
sg12
F-1.1907155482699148
sg13
F-0.4016096198857647
sg14
F-1.0611890122833179
sg15
F-0.8639643817843111
sg16
F0.0
sg17
F-0.7969981590536745
sg18
F-2.3492570565127284
sg19
F-0.2573422829344683
sg20
F0.7493539321889346
ssS'RIEKER PAULA H'
p81
(dp82
g3
F1.615743057999284
sg4
F0.047715938705588684
sg5
F0.21212941810610425
sg6
F0.6511277289577845
sg7
F0.7990071338730871
sg8
F1.9187849225603395
sg9
F0.3535533873061122
sg10
F1.1473232768737593
sg11
F0.3403314899435295
sg12
F0.44097804749934094
sg13
F-0.2731791823540361
sg14
F0.16243794083667856
sg15
F0.8539246674487083
sg16
F1.0
sg17
F-1.0220665982659085
sg18
F0.6109971767670309
sg19
F0.14683018816103813
sg20
F-1.4741641420412683
ssS'WHALEY DAVID A'
p83
(dp84
g3
F-0.5558781513843727
sg4
F-0.015881448141292324
sg5
F-1.6253624056949656
sg6
F0.12688845422697165
sg7
F-1.0512128304478323
sg8
F0.025002902481447216
sg9
F0.3779644564309431
sg10
F-0.9692756726288899
sg11
F-0.5140050494918997
sg12
F-1.1907155482699148
sg13
F-0.4016096198857647
sg14
F-1.0611890122833179
sg15
F-0.8639643817843111
sg16
F0.0
sg17
F-0.7969981590536745
sg18
F-0.0024706649494493117
sg19
F-1.560142189471907
sg20
F0.7493539321889346
ssS'BECK SALLY W'
p85
(dp86
g3
F-0.5558781513843727
sg4
F-0.47255102798444776
sg5
F0.47126603650797527
sg6
F-1.2991148386302558
sg7
F0.9074516188038229
sg8
F-0.5605046071086148
sg9
F0.3779644564309431
sg10
F1.1896480218574796
sg11
F-0.4513836228255432
sg12
F0.8540070773275683
sg13
F-0.4016096198857647
sg14
F0.2038571049869995
sg15
F-0.8639643817843111
sg16
F0.0
sg17
F-0.7969981590536745
sg18
F1.462737847558773
sg19
F0.010811221951451662
sg20
F0.7493539321889346
ssS'HAUG DAVID L'
p87
(dp88
g3
F-0.5558781513843727
sg4
F-1.295986180491713
sg5
F-1.147732035136933
sg6
F-1.2991148386302558
sg7
F-1.0512128304478323
sg8
F1.3741964425829805
sg9
F0.3779644564309431
sg10
F-0.9692756726288899
sg11
F0.5154583902342955
sg12
F-0.17351628442332387
sg13
F-0.4016096198857647
sg14
F-1.0611890122833179
sg15
F-0.8639643817843111
sg16
F0.0
sg17
F-0.7969981590536745
sg18
F-0.5669986387913917
sg19
F1.0846651490387
sg20
F0.7493539321889346
ssS'ECHOLS JOHN B'
p89
(dp90
g3
F-0.6199759729323067
sg4
F0.047715938705588684
sg5
F0.843974487549192
sg6
F0.30195462660159783
sg7
F0.5201965047398199
sg8
F0.0535947909913842
sg9
F0.3535533873061122
sg10
F-0.6277760632136964
sg11
F-0.02834574443759905
sg12
F0.25539532841436874
sg13
F-0.2731791823540361
sg14
F0.8207964561063505
sg15
F-0.4168200337485996
sg16
F0.0
sg17
F1.19873788822873
sg18
F-0.008922446580896817
sg19
F0.28914921377260766
sg20
F0.6837486711440917
ssS'MENDELSOHN JOHN'
p91
(dp92
g3
F-0.5558781513843727
sg4
F-0.015881448141292324
sg5
F-1.2727268253482746
sg6
F-1.2991148386302558
sg7
F-1.0512128304478323
sg8
F0.025002902481447216
sg9
F0.3779644564309431
sg10
F-0.9692756726288899
sg11
F-1.7836214628190477
sg12
F-0.3993777989517289
sg13
F2.490524302678858
sg14
F-1.0611890122833179
sg15
F-0.8639643817843111
sg16
F0.0
sg17
F-0.7969981590536745
sg18
F-0.0024706649494493117
sg19
F-1.560142189471907
sg20
F-1.3064764584118114
ssS'HICKERSON GARY J'
p93
(dp94
g3
F-0.5558781513843727
sg4
F0.06586173853573868
sg5
F0.7541039768170207
sg6
F-1.2991148386302558
sg7
F1.0532591756333411
sg8
F-1.2151767891276715
sg9
F0.3779644564309431
sg10
F1.304712110482292
sg11
F-0.08599987395133972
sg12
F1.1299219014811106
sg13
F-0.4016096198857647
sg14
F0.41531542361955076
sg15
F-0.8639643817843111
sg16
F0.0
sg17
F1.1104728460341415
sg18
F0.04056130977578511
sg19
F0.4205249491270761
sg20
F0.7493539321889346
ssS'CLINE KENNETH W'
p95
(dp96
g3
F-0.5558781513843727
sg4
F-0.015881448141292324
sg5
F-1.6253624056949656
sg6
F-1.2991148386302558
sg7
F-1.0512128304478323
sg8
F0.025002902481447216
sg9
F-2.6466446580274092
sg10
F-0.9692756726288899
sg11
F-0.3408067636958149
sg12
F-1.1907155482699148
sg13
F-0.4016096198857647
sg14
F-1.0611890122833179
sg15
F-0.8639643817843111
sg16
F0.0
sg17
F-0.7969981590536745
sg18
F-0.0024706649494493117
sg19
F0.571861224831835
sg20
F0.7493539321889346
ssS'SULLIVAN-SHAKLOVITZ COLLEEN'
p97
(dp98
g3
F1.7958300410194488
sg4
F-0.015881448141292324
sg5
F0.48205880100290033
sg6
F0.6923401397137634
sg7
F0.5953937861332556
sg8
F0.025002902481447216
sg9
F0.3779644564309431
sg10
F-0.41421759651184864
sg11
F0.31639238525798924
sg12
F-1.1907155482699148
sg13
F-0.4016096198857647
sg14
F-0.021157449952996718
sg15
F0.9746801380400966
sg16
F0.0
sg17
F1.2757335776265513
sg18
F-0.0024706649494493117
sg19
F-1.560142189471907
sg20
F0.7493539321889346
ssS'LEWIS RICHARD'
p99
(dp100
g3
F-0.6199759729323067
sg4
F-1.0452328270784463
sg5
F-2.044597651716298
sg6
F0.4168931149617374
sg7
F-1.2007003315958937
sg8
F-1.4370165082991035
sg9
F0.3535533873061122
sg10
F-1.0917244814899822
sg11
F-0.1171236140201772
sg12
F-1.501339223082566
sg13
F-0.2731791823540361
sg14
F-1.248839269627727
sg15
F-0.996587696449088
sg16
F0.0
sg17
F-1.0220665982659085
sg18
F-0.008922446580896817
sg19
F-1.6699789146305961
sg20
F0.6837486711440917
ssS'HAYES ROBERT E'
p101
(dp102
g3
F1.4707954237207155
sg4
F0.33872923378099545
sg5
F-1.4872321219645133
sg6
F-1.530296482792952
sg7
F-1.2007003315958937
sg8
F-1.4370165082991035
sg9
F0.3535533873061122
sg10
F-1.0917244814899822
sg11
F-0.8361194428129416
sg12
F-1.501339223082566
sg13
F-0.2731791823540361
sg14
F-1.248839269627727
sg15
F-0.996587696449088
sg16
F0.0
sg17
F-1.0220665982659085
sg18
F-1.8263406310340813
sg19
F-0.07774105024001801
sg20
F0.6837486711440917
ssS'KOPPER MICHAEL J'
p103
(dp104
g3
F-0.6199759729323067
sg4
F0.047715938705588684
sg5
F0.8322005876959007
sg6
F-1.530296482792952
sg7
F0.8302490432437946
sg8
F0.0535947909913842
sg9
F0.3535533873061122
sg10
F0.35165605872948247
sg11
F-0.041027984130249155
sg12
F1.0836335200166496
sg13
F-0.2731791823540361
sg14
F1.402320580881523
sg15
F-0.996587696449088
sg16
F1.0
sg17
F0.9935054854131089
sg18
F-0.008922446580896817
sg19
F0.679645768752498
sg20
F0.6837486711440917
ssS'LEFF DANIEL P'
p105
(dp106
g3
F-0.6199759729323067
sg4
F-0.10658455247950796
sg5
F0.8356577675405389
sg6
F-1.530296482792952
sg7
F0.8831381546815805
sg8
F0.8763922495797948
sg9
F0.3535533873061122
sg10
F0.5746669421276902
sg11
F-0.5118471435588082
sg12
F-1.501339223082566
sg13
F-0.2731791823540361
sg14
F0.2518170894051205
sg15
F-0.996587696449088
sg16
F0.0
sg17
F1.1239402236424234
sg18
F1.7194725522060952
sg19
F0.23994101765486
sg20
F0.6837486711440917
ssS'LAVORATO JOHN J'
p107
(dp108
g3
F-0.6199759729323067
sg4
F1.7073634814467733
sg5
F2.1413844973667593
sg6
F1.0290537183278303
sg7
F1.4194871737965384
sg8
F0.45777937299188154
sg9
F0.3535533873061122
sg10
F1.3468810585054045
sg11
F1.0326098458364854
sg12
F0.6255142721185539
sg13
F-0.2731791823540361
sg14
F0.11808121184662723
sg15
F-0.09610406303560985
sg16
F0.0
sg17
F1.1840610640127052
sg18
F2.4306561488940717
sg19
F0.6908156785768949
sg20
F0.6837486711440917
ssS'BERBERIAN DAVID'
p109
(dp110
g3
F-0.6199759729323067
sg4
F0.047715938705588684
sg5
F-0.5861438223353289
sg6
F0.6486240080362589
sg7
F-1.2007003315958937
sg8
F0.0535947909913842
sg9
F0.3535533873061122
sg10
F-1.0917244814899822
sg11
F0.5077070994257757
sg12
F0.027100962691444894
sg13
F-0.2731791823540361
sg14
F-1.248839269627727
sg15
F1.642214161454345
sg16
F0.0
sg17
F-1.0220665982659085
sg18
F-0.008922446580896817
sg19
F0.6202571486212054
sg20
F0.6837486711440917
ssS'DETMERING TIMOTHY J'
p111
(dp112
g3
F1.649814454261382
sg4
F0.047715938705588684
sg5
F0.26997577738735357
sg6
F0.7335141019163921
sg7
F0.6849048581593287
sg8
F0.0535947909913842
sg9
F-2.828578453863305
sg10
F0.5102114390050948
sg11
F0.37474975653001463
sg12
F0.6514216453589953
sg13
F-0.2731791823540361
sg14
F0.052308058351104254
sg15
F0.9401359024810991
sg16
F0.0
sg17
F0.935550666998288
sg18
F-0.008922446580896817
sg19
F0.1870940496338668
sg20
F-1.5520296661274033
ssS'WAKEHAM JOHN'
p113
(dp114
g3
F-0.6199759729323067
sg4
F0.047715938705588684
sg5
F-0.61436068699047
sg6
F-1.530296482792952
sg7
F-1.2007003315958937
sg8
F0.0535947909913842
sg9
F0.3535533873061122
sg10
F-1.0917244814899822
sg11
F-2.1551277242844487
sg12
F1.0101316718416542
sg13
F3.6606020124925065
sg14
F-1.248839269627727
sg15
F-0.996587696449088
sg16
F0.0
sg17
F-1.0220665982659085
sg18
F-0.008922446580896817
sg19
F-1.6699789146305961
sg20
F0.6837486711440917
ssS'POWERS WILLIAM'
p115
(dp116
g3
F-0.5558781513843727
sg4
F-1.8521076988884697
sg5
F-1.6253624056949656
sg6
F-1.2991148386302558
sg7
F-1.0512128304478323
sg8
F-1.7815134893218851
sg9
F0.3779644564309431
sg10
F-0.9692756726288899
sg11
F-1.7836214628190477
sg12
F-1.1907155482699148
sg13
F2.4865189892733643
sg14
F-1.0611890122833179
sg15
F-0.8639643817843111
sg16
F0.0
sg17
F-0.7969981590536745
sg18
F-2.1584925029723525
sg19
F-1.560142189471907
sg20
F-1.1695999557599235
ssS'GOLD JOSEPH'
p117
(dp118
g3
F-0.5558781513843727
sg4
F-0.015881448141292324
sg5
F0.7661727862661726
sg6
F0.4319005802023383
sg7
F0.9187091522537745
sg8
F0.025002902481447216
sg9
F0.3779644564309431
sg10
F0.48505039494328345
sg11
F0.15025260782102154
sg12
F-1.1907155482699148
sg13
F-0.4016096198857647
sg14
F1.3224129971862217
sg15
F-0.30412835996635657
sg16
F0.0
sg17
F1.2319361851550534
sg18
F-0.0024706649494493117
sg19
F0.4205249491270761
sg20
F0.7493539321889346
ssS'BANNANTINE JAMES M'
p119
(dp120
g3
F-0.6199759729323067
sg4
F1.6248751670830897
sg5
F0.10139265359924451
sg6
F1.0171267035114555
sg7
F-1.2007003315958937
sg8
F-1.4370165082991035
sg9
F-2.8287026579387184
sg10
F-1.0917244814899822
sg11
F1.0441488570279198
sg12
F0.6880608909317755
sg13
F-0.2731791823540361
sg14
F1.3921728678833674
sg15
F1.4762552857621698
sg16
F0.0
sg17
F-1.0220665982659085
sg18
F-0.4598308048426048
sg19
F0.9736740264855158
sg20
F-1.2838821941515455
ssS'DUNCAN JOHN H'
p121
(dp122
g3
F-0.5558781513843727
sg4
F-0.015881448141292324
sg5
F-0.26977753991281606
sg6
F0.39709911690744293
sg7
F-1.0512128304478323
sg8
F0.025002902481447216
sg9
F0.3779644564309431
sg10
F-0.9692756726288899
sg11
F-0.14058065740195802
sg12
F-1.1907155482699148
sg13
F2.490509422897888
sg14
F-1.0611890122833179
sg15
F1.6812298976173647
sg16
F0.0
sg17
F-0.7969981590536745
sg18
F-0.0024706649494493117
sg19
F-1.560142189471907
sg20
F-1.1999921686272206
ssS'SHAPIRO RICHARD S'
p123
(dp124
g3
F-0.5558781513843727
sg4
F-1.4543746635853252
sg5
F0.5020318118350661
sg6
F0.5051311133140651
sg7
F0.8953743702624114
sg8
F-0.9914682642245474
sg9
F0.3779644564309431
sg10
F1.03367484156327
sg11
F0.1934227899907345
sg12
F1.2278607915289539
sg13
F-0.4016096198857647
sg14
F0.24233101894905254
sg15
F0.32522930234999525
sg16
F0.0
sg17
F-0.7969981590536745
sg18
F2.4366197160644427
sg19
F0.36660192650672446
sg20
F0.7493539321889346
ssS'SHERRIFF JOHN R'
p125
(dp126
g3
F-0.6199759729323067
sg4
F-1.189181076593052
sg5
F1.2475818426319272
sg6
F0.695031143803815
sg7
F0.9814621120017423
sg8
F1.0243923819267795
sg9
F0.3535533873061122
sg10
F0.4900607144869827
sg11
F0.6614836424282606
sg12
F-1.501339223082566
sg13
F-0.2731791823540361
sg14
F1.552205129750755
sg15
F-0.0579343697141734
sg16
F0.0
sg17
F0.9804795802065978
sg18
F1.3339804059975844
sg19
F0.8139483921527365
sg20
F0.6837486711440917
ssS'SHELBY REX'
p127
(dp128
g3
F-0.6199759729323067
sg4
F1.3426690042414213
sg5
F0.6186148922585848
sg6
F0.6486240080362589
sg7
F0.5201965047398199
sg8
F1.4561347302920344
sg9
F0.3535533873061122
sg10
F-0.4885916918765126
sg11
F0.5077070994257757
sg12
F0.2804333476488905
sg13
F-0.2731791823540361
sg14
F1.5178126113116055
sg15
F0.4035060484075615
sg16
F1.0
sg17
F-1.0220665982659085
sg18
F-1.5608217023229074
sg19
F0.6202571486212054
sg20
F-1.2662197620673785
ssS'LEMAISTRE CHARLES'
p129
(dp130
g3
F-0.5558781513843727
sg4
F-0.015881448141292324
sg5
F-0.23999580171248122
sg6
F0.4197842802167775
sg7
F-1.0512128304478323
sg8
F0.025002902481447216
sg9
F0.3779644564309431
sg10
F-0.9692756726288899
sg11
F-0.10728436121636024
sg12
F-1.1907155482699148
sg13
F2.4906201169812228
sg14
F-1.0611890122833179
sg15
F1.6750414223235646
sg16
F0.0
sg17
F-0.7969981590536745
sg18
F-0.0024706649494493117
sg19
F-1.560142189471907
sg20
F-1.1999921686272206
ssS'DEFFNER JOSEPH M'
p131
(dp132
g3
F-0.5558781513843727
sg4
F2.1577729405759785
sg5
F0.549811335539646
sg6
F-0.1848067770913736
sg7
F0.8823472774613202
sg8
F-0.9841834961204601
sg9
F0.3779644564309431
sg10
F0.8238318734002457
sg11
F-0.3889728619964482
sg12
F0.884994597194676
sg13
F-0.4016096198857647
sg14
F0.8281496466419707
sg15
F-0.8164525164853902
sg16
F0.0
sg17
F1.23911781840587
sg18
F-0.4320794518752978
sg19
F0.04606057289157454
sg20
F0.7493539321889346
ssS'KISHKILL JOSEPH G'
p133
(dp134
g3
F-0.6199759729323067
sg4
F0.047715938705588684
sg5
F-0.04885555056976561
sg6
F-1.530296482792952
sg7
F-1.2007003315958937
sg8
F0.0535947909913842
sg9
F0.3535533873061122
sg10
F-1.0917244814899822
sg11
F-0.015117716519616827
sg12
F1.074831000696542
sg13
F-0.2731791823540361
sg14
F1.2631344260753326
sg15
F-0.996587696449088
sg16
F0.0
sg17
F-1.0220665982659085
sg18
F-0.008922446580896817
sg19
F0.7032256402645605
sg20
F-1.4406392753710822
ssS'WHALLEY LAWRENCE G'
p135
(dp136
g3
F-0.5558781513843727
sg4
F0.09284308938999561
sg5
F1.0894926506014082
sg6
F0.9112072099623494
sg7
F1.147772244974129
sg8
F-1.1300281353360626
sg9
F0.3779644564309431
sg10
F1.0751560763945232
sg11
F0.9838865812705595
sg12
F0.9764359727760692
sg13
F-0.4016096198857647
sg14
F1.1863947254352727
sg15
F0.47369313784983047
sg16
F0.0
sg17
F1.3019258405708884
sg18
F2.156345326099307
sg19
F1.194867803564307
sg20
F0.7493539321889346
ssS'MCCARTY DANNY J'
p137
(dp138
g3
F-0.6199759729323067
sg4
F-0.5179748754346085
sg5
F-2.044597651716298
sg6
F0.3343473275390602
sg7
F-1.2007003315958937
sg8
F-1.2757537758216257
sg9
F0.3535533873061122
sg10
F-1.0917244814899822
sg11
F-0.1743055495298098
sg12
F-1.501339223082566
sg13
F-0.2731791823540361
sg14
F-1.248839269627727
sg15
F-0.996587696449088
sg16
F0.0
sg17
F-1.0220665982659085
sg18
F-0.3794710963169373
sg19
F-0.22950386558193428
sg20
F0.6837486711440917
ssS'MCCONNELL MICHAEL S'
p139
(dp140
g3
F-0.6199759729323067
sg4
F0.12006844539226684
sg5
F0.6536611011071723
sg6
F0.6483029227602144
sg7
F0.9059909469690561
sg8
F-0.3962559991626485
sg9
F0.3535533873061122
sg10
F0.9331060798228505
sg11
F0.6552992500136795
sg12
F0.8772406118744799
sg13
F-0.2731791823540361
sg14
F-0.08540074925179952
sg15
F0.36726281754297435
sg16
F0.0
sg17
F0.9804795802065978
sg18
F1.396206123534282
sg19
F0.88239113788138
sg20
F0.6837486711440917
ssS'DELAINEY DAVID W'
p141
(dp142
g3
F-0.6199759729323067
sg4
F-0.2567552225649807
sg5
F1.3306683142394187
sg6
F0.7814648731631223
sg7
F1.1564009514360485
sg8
F0.7335264223675543
sg9
F0.3535533873061122
sg10
F1.138698597583455
sg11
F0.7636150443692876
sg12
F0.9080320958283351
sg13
F-0.2731791823540361
sg14
F0.13125667958762427
sg15
F0.028893979414247373
sg16
F1.0
sg17
F1.1131376618504514
sg18
F1.329578802163436
sg19
F0.8254680390245596
sg20
F0.6837486711440917
ssS'FASTOW ANDREW S'
p143
(dp144
g3
F-0.6199759729323067
sg4
F0.047715938705588684
sg5
F0.7618206337008123
sg6
F-1.530296482792952
sg7
F0.9464295637245794
sg8
F0.0535947909913842
sg9
F0.3535533873061122
sg10
F0.959580503612333
sg11
F0.299151895033241
sg12
F0.6847109575552129
sg13
F-0.2731791823540361
sg14
F1.1561160265929498
sg15
F-0.996587696449088
sg16
F1.0
sg17
F1.159095246737509
sg18
F-0.008922446580896817
sg19
F0.9848248525311153
sg20
F-1.5688144221672724
ssS'WROBEL BRUCE'
p145
(dp146
g3
F-0.5558781513843727
sg4
F-0.015881448141292324
sg5
F-1.6253624056949656
sg6
F0.19397898283063575
sg7
F-1.0512128304478323
sg8
F0.025002902481447216
sg9
F0.3779644564309431
sg10
F-0.9692756726288899
sg11
F-0.42527421935793464
sg12
F-1.1907155482699148
sg13
F-0.4016096198857647
sg14
F-1.0611890122833179
sg15
F-0.8639643817843111
sg16
F0.0
sg17
F-0.7969981590536745
sg18
F-0.0024706649494493117
sg19
F-1.560142189471907
sg20
F0.7493539321889346
ssS'LINDHOLM TOD A'
p147
(dp148
g3
F1.6142832848395603
sg4
F0.047715938705588684
sg5
F0.07484786604400827
sg6
F0.8241676355986595
sg7
F0.5201965047398199
sg8
F0.0535947909913842
sg9
F0.3535533873061122
sg10
F0.09159120046934946
sg11
F0.6469575618820373
sg12
F0.7004730527618731
sg13
F-0.2731791823540361
sg14
F0.22075259513278397
sg15
F1.2775573857014424
sg16
F0.0
sg17
F0.8009850413738542
sg18
F-0.008922446580896817
sg19
F0.38632351398628056
sg20
F0.6837486711440917
ssS'MEYER JEROME J'
p149
(dp150
g3
F-0.5558781513843727
sg4
F-0.015881448141292324
sg5
F-0.9508045804181652
sg6
F-1.2991148386302558
sg7
F-1.0512128304478323
sg8
F0.025002902481447216
sg9
F0.3779644564309431
sg10
F-0.9692756726288899
sg11
F-1.7836214628190477
sg12
F0.1480589690027294
sg13
F2.4888389524160495
sg14
F-1.0611890122833179
sg15
F-0.8639643817843111
sg16
F0.0
sg17
F-0.7969981590536745
sg18
F-0.0024706649494493117
sg19
F-1.560142189471907
sg20
F-1.2343891104390923
ssS'LAY KENNETH L'
p151
(dp152
g3
F1.797831389602421
sg4
F-0.00400472064237878
sg5
F2.8025121110165325
sg6
F1.580437627247969
sg7
F1.2904953507587542
sg8
F1.6462359095822354
sg9
F0.3779644564309431
sg10
F-0.5779162114297692
sg11
F2.25099269248496
sg12
F1.132809129798099
sg13
F-0.4016096198857647
sg14
F1.6445624142817936
sg15
F-0.044090687781112345
sg16
F1.0
sg17
F1.395855197226897
sg18
F1.3188799647906173
sg19
F2.1165897984183832
sg20
F-1.3725259480460001
ssS'BUTTS ROBERT H'
p153
(dp154
g3
F-0.6199759729323067
sg4
F0.047715938705588684
sg5
F0.3048207154713706
sg6
F-1.530296482792952
sg7
F0.8151113430319256
sg8
F0.0535947909913842
sg9
F0.3535533873061122
sg10
F1.0636793782010014
sg11
F-0.4498836010523211
sg12
F-0.05570260039610535
sg13
F-0.2731791823540361
sg14
F1.0305643144362593
sg15
F-0.996587696449088
sg16
F0.0
sg17
F0.8009850413738542
sg18
F-0.008922446580896817
sg19
F0.29913909016503215
sg20
F-1.4603838999475527
ssS'OLSON CINDY K'
p155
(dp156
g3
F1.5827104994218484
sg4
F-0.5570644953513676
sg5
F0.3299484380375303
sg6
F0.65154111790132
sg7
F0.8151113430319256
sg8
F1.2007912863357126
sg9
F0.3535533873061122
sg10
F1.0215320353537654
sg11
F0.5371156254168399
sg12
F0.7506674192517664
sg13
F-0.2731791823540361
sg14
F0.02754995519618341
sg15
F0.7212933482786719
sg16
F0.0
sg17
F0.7142201407611642
sg18
F0.15062631156423142
sg19
F0.672134074167076
sg20
F0.6837486711440917
ssS'MCDONALD REBECCA'
p157
(dp158
g3
F-0.5558781513843727
sg4
F1.0831426937299804
sg5
F-1.6253624056949656
sg6
F0.554887311768543
sg7
F-1.0512128304478323
sg8
F-0.6990301262382163
sg9
F0.3779644564309431
sg10
F-0.9692756726288899
sg11
F0.40277140269859957
sg12
F-1.1907155482699148
sg13
F-0.4016096198857647
sg14
F-1.0611890122833179
sg15
F-0.8639643817843111
sg16
F0.0
sg17
F-0.7969981590536745
sg18
F-0.18646328709246535
sg19
F0.7079808370929044
sg20
F0.7493539321889346
ssS'CUMBERLAND MICHAEL S'
p159
(dp160
g3
F-0.5558781513843727
sg4
F-0.015881448141292324
sg5
F0.4084685941096108
sg6
F-1.2991148386302558
sg7
F0.7831576906770332
sg8
F0.025002902481447216
sg9
F0.3779644564309431
sg10
F0.618828011758955
sg11
F-0.31457816178595044
sg12
F0.7175713164289276
sg13
F-0.4016096198857647
sg14
F0.2442994827489599
sg15
F-0.8639643817843111
sg16
F0.0
sg17
F1.224115008460813
sg18
F-0.0024706649494493117
sg19
F0.1648577208581069
sg20
F0.7493539321889346
ssS'GAHN ROBERT S'
p161
(dp162
g3
F1.5804568852218284
sg4
F0.047715938705588684
sg5
F0.09121455509917314
sg6
F-0.24902971813350405
sg7
F0.7260589770531037
sg8
F0.0535947909913842
sg9
F0.3535533873061122
sg10
F1.0189103130143504
sg11
F-0.5622836986619789
sg12
F0.6307792584061842
sg13
F-0.2731791823540361
sg14
F0.8924085811253845
sg15
F-0.7266582224850181
sg16
F0.0
sg17
F-1.0220665982659085
sg18
F-0.008922446580896817
sg19
F0.07726521470762947
sg20
F-1.1238872336584438
ssS'MCCLELLAN GEORGE'
p163
(dp164
g3
F-0.6199759729323067
sg4
F0.23858575204572208
sg5
F0.3285620822061454
sg6
F0.24735277598442368
sg7
F0.8580589628896992
sg8
F-1.4370165082991035
sg9
F0.3535533873061122
sg10
F1.2220504533082956
sg11
F-0.06121742522754848
sg12
F1.4896760618555316
sg13
F-0.2731791823540361
sg14
F0.8123913595757457
sg15
F-0.11961488630729629
sg16
F0.0
sg17
F-1.0220665982659085
sg18
F0.8152373559348505
sg19
F0.3215888277515703
sg20
F-1.4843099350707758
ssS'HERMANN ROBERT J'
p165
(dp166
g3
F-0.5558781513843727
sg4
F-0.015881448141292324
sg5
F0.5755547795632976
sg6
F0.25389533481711
sg7
F0.9074516188038229
sg8
F0.025002902481447216
sg9
F0.3779644564309431
sg10
F0.9057490112562794
sg11
F0.0532838115014909
sg12
F0.9264077708428219
sg13
F-0.4016096198857647
sg14
F1.2310587501989538
sg15
F-0.4442072337741128
sg16
F0.0
sg17
F1.1762473776467395
sg18
F-0.0024706649494493117
sg19
F0.451701249556595
sg20
F-1.3685423437359108
ssS'FALLON JAMES B'
p167
(dp168
g3
F-0.5558781513843727
sg4
F-0.2428425052697922
sg5
F0.9855903709084276
sg6
F0.6047581065603868
sg7
F1.11733281343583
sg8
F1.7898040280725507
sg9
F0.3779644564309431
sg10
F1.1318132112820942
sg11
F0.5371015620455831
sg12
F1.121169734464913
sg13
F-0.4016096198857647
sg14
F1.2260518069202433
sg15
F-0.19101104569010124
sg16
F0.0
sg17
F1.2472999127001545
sg18
F0.7297928007614872
sg19
F0.8754347416101254
sg20
F0.7493539321889346
ssS'CARTER REBECCA C'
p169
(dp170
g3
F-0.5558781513843727
sg4
F1.6696062310850777
sg5
F0.23584677835124976
sg6
F-1.2991148386302558
sg7
F0.7702854200089749
sg8
F1.714169705353003
sg9
F-2.6464831224701757
sg10
F1.054977726890616
sg11
F-1.7836214628190477
sg12
F-1.1907155482699148
sg13
F-0.4016096198857647
sg14
F0.19557811911251874
sg15
F-0.8639643817843111
sg16
F0.0
sg17
F1.1175472331099325
sg18
F-1.1779417122686657
sg19
F0.2938259206145851
sg20
F-1.334600172043613
ssS'HAEDICKE MARK E'
p171
(dp172
g3
F1.6662654118866673
sg4
F0.9176727347002597
sg5
F1.1441407818704539
sg6
F0.30586145548388893
sg7
F0.9167034831001708
sg8
F-0.9244275374317132
sg9
F-2.8285903115029676
sg10
F0.3398748873485961
sg11
F-0.1461022129315563
sg12
F0.8423052827222292
sg13
F-0.2731791823540361
sg14
F0.8154853698066501
sg15
F-0.5629682161925293
sg16
F0.0
sg17
F1.0700319177363196
sg18
F1.1385175966440635
sg19
F0.39396050243255476
sg20
F-1.5576447921599508
ssS'BOWEN JR RAYMOND M'
p173
(dp174
g3
F-0.5558781513843727
sg4
F1.3995455505837837
sg5
F0.8530086503502194
sg6
F-1.2991148386302558
sg7
F1.0151631829449221
sg8
F1.9444719953412284
sg9
F0.3779644564309431
sg10
F0.8420352214549297
sg11
F-0.25884524713924023
sg12
F1.0133189229364092
sg13
F-0.4016096198857647
sg14
F0.38538022618064066
sg15
F-0.8639643817843111
sg16
F1.0
sg17
F1.3145085529346712
sg18
F0.7206319607990378
sg19
F0.22738585894773805
sg20
F-0.8332117940821832
ssS'GILLIS JOHN'
p175
(dp176
g3
F-0.5558781513843727
sg4
F-0.015881448141292324
sg5
F-1.6253624056949656
sg6
F-0.2780388922458516
sg7
F-1.0512128304478323
sg8
F0.025002902481447216
sg9
F0.3779644564309431
sg10
F-0.9692756726288899
sg11
F-0.5492642056274355
sg12
F-1.1907155482699148
sg13
F-0.4016096198857647
sg14
F-1.0611890122833179
sg15
F-0.8639643817843111
sg16
F0.0
sg17
F-0.7969981590536745
sg18
F-0.0024706649494493117
sg19
F-0.13338750498437948
sg20
F0.7493539321889346
ssS'FITZGERALD JAY L'
p177
(dp178
g3
F-0.5558781513843727
sg4
F-1.761545450236496
sg5
F0.607361730894262
sg6
F0.5251790859373554
sg7
F0.7950914070237868
sg8
F1.80777656052908
sg9
F0.3779644564309431
sg10
F0.17958476271015017
sg11
F0.38560994214843397
sg12
F0.7350119051467146
sg13
F-0.4016096198857647
sg14
F1.179012383965769
sg15
F0.18154074027683523
sg16
F0.0
sg17
F1.2759879959495406
sg18
F-0.18241226262314925
sg19
F0.7177633408469011
sg20
F0.7493539321889346
ssS'MORAN MICHAEL P'
p179
(dp180
g3
F-0.6199759729323067
sg4
F-2.0207613937407536
sg5
F-2.044597651716298
sg6
F-0.3269167377192282
sg7
F-1.2007003315958937
sg8
F-1.4370165082991035
sg9
F0.3535533873061122
sg10
F-1.0917244814899822
sg11
F-0.702816932867564
sg12
F-1.501339223082566
sg13
F-0.2731791823540361
sg14
F-1.248839269627727
sg15
F-0.996587696449088
sg16
F0.0
sg17
F-1.0220665982659085
sg18
F-1.3856336910361549
sg19
F-0.05567484793710716
sg20
F0.6837486711440917
ssS'REDMOND BRIAN L'
p181
(dp182
g3
F-0.6199759729323067
sg4
F2.3385189975559824
sg5
F-0.8522296790361666
sg6
F1.297783288769334
sg7
F-1.2007003315958937
sg8
F0.8735344560713101
sg9
F0.3535533873061122
sg10
F-1.0917244814899822
sg11
F1.3825725848251416
sg12
F0.10523834664139503
sg13
F-0.2731791823540361
sg14
F-1.248839269627727
sg15
F1.9131293722259228
sg16
F0.0
sg17
F-1.0220665982659085
sg18
F0.40171311975533514
sg19
F0.2622893847169721
sg20
F0.6837486711440917
ssS'BAZELIDES PHILIP J'
p183
(dp184
g3
F1.6446714087665213
sg4
F0.047715938705588684
sg5
F0.06423111592686366
sg6
F0.6428539233328894
sg7
F-1.2007003315958937
sg8
F0.0535947909913842
sg9
F0.3535533873061122
sg10
F-1.0917244814899822
sg11
F0.23012930784982794
sg12
F-1.501339223082566
sg13
F-0.2731791823540361
sg14
F0.007063731209414572
sg15
F1.00728908557596
sg16
F0.0
sg17
F0.7042282498681095
sg18
F-0.008922446580896817
sg19
F-1.6699789146305961
sg20
F0.6837486711440917
ssS'BELDEN TIMOTHY N'
p185
(dp186
g3
F1.8283289614103002
sg4
F-0.015881448141292324
sg5
F1.1615486180807233
sg6
F0.6079235679028543
sg7
F1.2418026765816605
sg8
F0.6146129342773079
sg9
F0.3779644564309431
sg10
F1.444710174480016
sg11
F0.23769377655191307
sg12
F0.6515909883798958
sg13
F-0.4016096198857647
sg14
F1.1366496383791382
sg15
F-0.37388285497615703
sg16
F1.0
sg17
F-0.7969981590536745
sg18
F2.8499329697329907
sg19
F0.07801178638855114
sg20
F-1.474173044771489
ssS'DIMICHELE RICHARD G'
p187
(dp188
g3
F-0.5558781513843727
sg4
F-0.015881448141292324
sg5
F0.8049164983630337
sg6
F1.156408991182861
sg7
F0.9657947494591663
sg8
F0.025002902481447216
sg9
F0.3779644564309431
sg10
F0.6657180833089567
sg11
F1.1466138698068404
sg12
F0.8438537489001445
sg13
F-0.4016096198857647
sg14
F1.2165805740234665
sg15
F1.5429534075619145
sg16
F0.0
sg17
F1.2915449001254564
sg18
F-0.0024706649494493117
sg19
F0.010811221951451662
sg20
F0.7493539321889346
ssS'DURAN WILLIAM D'
p189
(dp190
g3
F-0.6199759729323067
sg4
F2.3014566425874348
sg5
F0.650794369340842
sg6
F0.6067468921414059
sg7
F0.8151113430319256
sg8
F1.0243923819267795
sg9
F0.3535533873061122
sg10
F0.5261529615955446
sg11
F0.24526686537075815
sg12
F0.33032842229334475
sg13
F-0.2731791823540361
sg14
F0.12007141909452022
sg15
F0.28725571197458266
sg16
F0.0
sg17
F1.0883198911776593
sg18
F-0.22272722264926925
sg19
F-0.0013789688013350525
sg20
F0.6837486711440917
ssS'THORN TERENCE H'
p191
(dp192
g3
F1.7300552870836179
sg4
F-1.8521076988884697
sg5
F0.44991283615555094
sg6
F0.9908538168618108
sg7
F-1.0512128304478323
sg8
F-1.7815134893218851
sg9
F0.3779644564309431
sg10
F-0.9692756726288899
sg11
F0.8686633254210628
sg12
F0.9134250980897766
sg13
F-0.4016096198857647
sg14
F1.2343627826406112
sg15
F1.6879627905499226
sg16
F0.0
sg17
F1.1993550623029792
sg18
F-1.654728769554235
sg19
F0.35354267212633794
sg20
F0.7493539321889346
ssS'FOY JOE'
p193
(dp194
g3
F1.795805566253761
sg4
F-1.8521076988884697
sg5
F-0.049161814391335025
sg6
F0.3801018510164781
sg7
F-1.0512128304478323
sg8
F-1.7815134893218851
sg9
F0.3779644564309431
sg10
F-0.9692756726288899
sg11
F-0.16533071802541635
sg12
F-1.1907155482699148
sg13
F-0.4016096198857647
sg14
F-1.0611890122833179
sg15
F1.2006940297528328
sg16
F0.0
sg17
F-0.7969981590536745
sg18
F-2.3839013668647553
sg19
F-1.560142189471907
sg20
F0.7493539321889346
ssS'CALGER CHRISTOPHER F'
p195
(dp196
g3
F-0.5558781513843727
sg4
F1.4219319988787136
sg5
F0.6623469434790877
sg6
F-1.2991148386302558
sg7
F1.002478404170187
sg8
F0.2504760797142134
sg9
F0.3779644564309431
sg10
F1.2408753690791527
sg11
F-0.4513836228255432
sg12
F0.8438993263920738
sg13
F-0.4016096198857647
sg14
F0.17697725646742266
sg15
F-0.8639643817843111
sg16
F1.0
sg17
F1.2474886599247506
sg18
F1.1699357759884332
sg19
F0.010811221951451662
sg20
F-1.364778923442551
ssS'RICE KENNETH D'
p197
(dp198
g3
F-0.5558781513843727
sg4
F0.6868572851019408
sg5
F0.25360715348313145
sg6
F1.4113768034873662
sg7
F1.058060341675141
sg8
F0.608456682180146
sg9
F0.3779644564309431
sg10
F2.190657596540508
sg11
F1.7255584277902185
sg12
F0.9182156005964889
sg13
F-0.4016096198857647
sg14
F1.1103646164594212
sg15
F2.0339195159817294
sg16
F1.0
sg17
F1.3474035651076073
sg18
F-0.0024706649494493117
sg19
F1.1865331662316871
sg20
F-1.4908898116766924
ssS'KAMINSKI WINCENTY J'
p199
(dp200
g3
F-0.6199759729323067
sg4
F0.1895721949897082
sg5
F0.20513570406390627
sg6
F0.4167060296350496
sg7
F0.6713216623793076
sg8
F0.7123166609845822
sg9
F0.3535533873061122
sg10
F0.5541143946836858
sg11
F-0.04585983124790728
sg12
F0.8916342719615058
sg13
F-0.2731791823540361
sg14
F0.33322715226039357
sg15
F0.37664915886800593
sg16
F0.0
sg17
F0.8964877632589078
sg18
F-0.006778312032748359
sg19
F-0.1385172339581939
sg20
F0.6837486711440917
ssS'LOCKHART EUGENE E'
p201
(dp202
g3
F-0.5558781513843727
sg4
F-0.015881448141292324
sg5
F-1.6253624056949656
sg6
F-1.2991148386302558
sg7
F-1.0512128304478323
sg8
F0.025002902481447216
sg9
F0.3779644564309431
sg10
F-0.9692756726288899
sg11
F-1.7836214628190477
sg12
F-1.1907155482699148
sg13
F-0.4016096198857647
sg14
F-1.0611890122833179
sg15
F-0.8639643817843111
sg16
F0.0
sg17
F-0.7969981590536745
sg18
F-0.0024706649494493117
sg19
F-1.560142189471907
sg20
F0.7493539321889346
ssS'COX DAVID'
p203
(dp204
g3
F-0.6199759729323067
sg4
F-2.0207613937407536
sg5
F0.2134291060289059
sg6
F-0.16449204825084363
sg7
F0.8302490432437946
sg8
F0.13849179678366594
sg9
F0.3535533873061122
sg10
F1.2887868277104588
sg11
F-0.3748749257357612
sg12
F0.3633455147710857
sg13
F-0.2731791823540361
sg14
F-0.10243288384596454
sg15
F-0.6890857505536269
sg16
F0.0
sg17
F-1.0220665982659085
sg18
F-1.6780265866997457
sg19
F0.25890620756304794
sg20
F-1.4290265013714276
ssS'OVERDYKE JR JERE C'
p205
(dp206
g3
F-0.6199759729323067
sg4
F0.047715938705588684
sg5
F-0.5493065580153235
sg6
F1.1335303468692293
sg7
F-1.2007003315958937
sg8
F0.0535947909913842
sg9
F0.3535533873061122
sg10
F-1.0917244814899822
sg11
F1.3164740005421836
sg12
F0.20153775838936897
sg13
F-0.2731791823540361
sg14
F-0.2982626975382014
sg15
F1.841758595183089
sg16
F0.0
sg17
F0.7616788808204168
sg18
F-0.008922446580896817
sg19
F1.054995418967618
sg20
F0.6837486711440917
ssS'PEREIRA PAULO V. FERRAZ'
p207
(dp208
g3
F-0.5558781513843727
sg4
F-0.015881448141292324
sg5
F-0.5005328000670737
sg6
F-1.2991148386302558
sg7
F-1.0512128304478323
sg8
F0.025002902481447216
sg9
F0.3779644564309431
sg10
F-0.9692756726288899
sg11
F-1.7836214628190477
sg12
F0.7769133137893331
sg13
F2.4904944367306374
sg14
F-1.0611890122833179
sg15
F-0.8639643817843111
sg16
F0.0
sg17
F-0.7969981590536745
sg18
F-0.0024706649494493117
sg19
F-1.560142189471907
sg20
F-1.3048338656063856
ssS'STABLER FRANK'
p209
(dp210
g3
F-0.5558781513843727
sg4
F-0.015881448141292324
sg5
F0.519914423775271
sg6
F-1.2991148386302558
sg7
F0.8527411740405929
sg8
F0.025002902481447216
sg9
F0.3779644564309431
sg10
F0.7267339393773089
sg11
F-0.037296017761474544
sg12
F0.6387543561839388
sg13
F-0.4016096198857647
sg14
F1.209575079242607
sg15
F-0.8639643817843111
sg16
F0.0
sg17
F-0.7969981590536745
sg18
F-0.0024706649494493117
sg19
F0.47474518417578915
sg20
F0.7493539321889346
ssS'SKILLING JEFFREY K'
p211
(dp212
g3
F-0.6199759729323067
sg4
F-0.07512689094562985
sg5
F1.9371879241609677
sg6
F1.7796102126669937
sg7
F1.3216418021812901
sg8
F1.1547977745315061
sg9
F0.3535533873061122
sg10
F1.1609933351066657
sg11
F2.587444317487844
sg12
F0.38562867658391725
sg13
F-0.2731791823540361
sg14
F0.6419596518292691
sg15
F1.1199020348180784
sg16
F1.0
sg17
F1.1748996752452756
sg18
F1.2888502198856189
sg19
F1.805088057174125
sg20
F0.6837486711440917
ssS'BLAKE JR. NORMAN P'
p213
(dp214
g3
F-0.6199759729323067
sg4
F0.047715938705588684
sg5
F-1.7253030282303785
sg6
F-1.530296482792952
sg7
F-1.2007003315958937
sg8
F0.0535947909913842
sg9
F0.3535533873061122
sg10
F-1.0917244814899822
sg11
F-2.1551277242844487
sg12
F-0.6235361939845125
sg13
F3.6606020974857585
sg14
F-1.248839269627727
sg15
F-0.996587696449088
sg16
F0.0
sg17
F-1.0220665982659085
sg18
F-0.008922446580896817
sg19
F-1.6699789146305961
sg20
F-1.4800916515278495
ssS'SHERRICK JEFFREY B'
p215
(dp216
g3
F-0.6199759729323067
sg4
F1.499361296848877
sg5
F-2.044597651716298
sg6
F0.600229745063779
sg7
F-1.2007003315958937
sg8
F2.0573968327821675
sg9
F0.3535533873061122
sg10
F-1.0917244814899822
sg11
F0.31196615226726143
sg12
F-1.501339223082566
sg13
F-0.2731791823540361
sg14
F-1.248839269627727
sg15
F-0.996587696449088
sg16
F0.0
sg17
F-1.0220665982659085
sg18
F-0.24912608814961876
sg19
F0.2876468482104069
sg20
F0.6837486711440917
ssS'CHAN RONNIE'
p217
(dp218
g3
F-0.5558781513843727
sg4
F-0.015881448141292324
sg5
F-1.6253624056949656
sg6
F-1.2991148386302558
sg7
F-1.0512128304478323
sg8
F0.025002902481447216
sg9
F-2.6442243797671545
sg10
F-0.9692756726288899
sg11
F-1.7836214628190477
sg12
F-1.1907155482699148
sg13
F2.4904637726736185
sg14
F-1.0611890122833179
sg15
F-0.8639643817843111
sg16
F0.0
sg17
F-0.7969981590536745
sg18
F-0.0024706649494493117
sg19
F-0.34977522366567537
sg20
F-1.3031673478638153
ssS'GRAY RODNEY'
p219
(dp220
g3
F1.5893792842990213
sg4
F0.047715938705588684
sg5
F0.23869028622201655
sg6
F-1.530296482792952
sg7
F-1.2007003315958937
sg8
F0.0535947909913842
sg9
F0.3535533873061122
sg10
F-1.0917244814899822
sg11
F-2.1551277242844487
sg12
F-1.501339223082566
sg13
F-0.2731791823540361
sg14
F1.3422982121651814
sg15
F-0.996587696449088
sg16
F0.0
sg17
F0.9155666620950658
sg18
F-0.008922446580896817
sg19
F-1.6699789146305961
sg20
F0.6837486711440917
ssS'UMANOFF ADAM S'
p221
(dp222
g3
F-0.5558781513843727
sg4
F1.8382336455698411
sg5
F0.5257700558991241
sg6
F-1.2991148386302558
sg7
F0.9269374794215013
sg8
F-1.7815134893218851
sg9
F0.3779644564309431
sg10
F1.1565106478895422
sg11
F-1.7836214628190477
sg12
F0.9525922802445908
sg13
F-0.4016096198857647
sg14
F-1.0611890122833179
sg15
F-0.8639643817843111
sg16
F0.0
sg17
F-0.7969981590536745
sg18
F-1.8576479385902724
sg19
F-1.560142189471907
sg20
F0.7493539321889346
ssS'KEAN STEVEN J'
p223
(dp224
g3
F-0.5558781513843727
sg4
F-1.0128294702535812
sg5
F0.6865868215031447
sg6
F0.7886251929300037
sg7
F0.9657947494591663
sg8
F-0.9425618712796843
sg9
F0.3779644564309431
sg10
F0.9636569871524024
sg11
F0.9900485121506282
sg12
F0.8871461026797235
sg13
F-0.4016096198857647
sg14
F0.3385881156292873
sg15
F0.8536678172937145
sg16
F0.0
sg17
F1.2307340964905276
sg18
F2.017618148077291
sg19
F1.3897799137999087
sg20
F0.7493539321889346
ssS'FOWLER PEGGY'
p225
(dp226
g3
F-0.6199759729323067
sg4
F-2.0207613937407536
sg5
F-2.044597651716298
sg6
F0.5730567997901264
sg7
F-1.2007003315958937
sg8
F-1.4370165082991035
sg9
F0.3535533873061122
sg10
F-1.0917244814899822
sg11
F0.3292443353640385
sg12
F-1.501339223082566
sg13
F-0.2731791823540361
sg14
F-1.248839269627727
sg15
F-0.996587696449088
sg16
F0.0
sg17
F-1.0220665982659085
sg18
F-2.3024143300984425
sg19
F0.42245807358717263
sg20
F0.6837486711440917
ssS'WASAFF GEORGE'
p227
(dp228
g3
F1.6487596847683494
sg4
F1.260883033820821
sg5
F0.1746094457997417
sg6
F0.6586677960025727
sg7
F0.6252497934719148
sg8
F0.9378754859681654
sg9
F0.3535533873061122
sg10
F0.39229723422622825
sg11
F0.38353732709076177
sg12
F-1.501339223082566
sg13
F-0.2731791823540361
sg14
F0.10152501229772996
sg15
F0.9105535119354354
sg16
F0.0
sg17
F0.8217213544159515
sg18
F-0.7315774482953007
sg19
F0.2694813116289392
sg20
F-1.5430592942750936
ssS'WHITE JR THOMAS E'
p229
(dp230
g3
F-0.6199759729323067
sg4
F0.047715938705588684
sg5
F0.5928501996953969
sg6
F0.5654120100730177
sg7
F0.6977663245919973
sg8
F0.0535947909913842
sg9
F0.3535533873061122
sg10
F0.10806299611410668
sg11
F1.9962936117405359
sg12
F0.8771685469528017
sg13
F-0.2731791823540361
sg14
F1.4398230236314642
sg15
F0.26234021762888743
sg16
F0.0
sg17
F-1.0220665982659085
sg18
F-0.008922446580896817
sg19
F2.3281822197173145
sg20
F0.6837486711440917
ssS'CHRISTODOULOU DIOMEDES'
p231
(dp232
g3
F-0.5558781513843727
sg4
F-0.015881448141292324
sg5
F-1.6253624056949656
sg6
F1.02842258254948
sg7
F-1.0512128304478323
sg8
F0.025002902481447216
sg9
F0.3779644564309431
sg10
F-0.9692756726288899
sg11
F0.9837825002040892
sg12
F-1.1907155482699148
sg13
F-0.4016096198857647
sg14
F-1.0611890122833179
sg15
F-0.8639643817843111
sg16
F0.0
sg17
F-0.7969981590536745
sg18
F-0.0024706649494493117
sg19
F0.7151786446026259
sg20
F0.7493539321889346
ssS'ALLEN PHILLIP K'
p233
(dp234
g3
F1.8308027776909601
sg4
F-0.6772576002846405
sg5
F1.0710423244765954
sg6
F0.7501460140139201
sg7
F1.2031957087800744
sg8
F-1.3214150369394004
sg9
F-2.645956656883373
sg10
F1.4230631011888932
sg11
F0.4118661980461056
sg12
F0.5939723799365295
sg13
F-0.4016096198857647
sg14
F-0.03287539490025485
sg15
F0.049957405124964986
sg16
F0.0
sg17
F1.2319361851550534
sg18
F0.5595250982368175
sg19
F0.010811221951451662
sg20
F-1.4857005062826896
ssS'SHARP VICTORIA T'
p235
(dp236
g3
F1.6117963699288633
sg4
F-1.2871985917731885
sg5
F0.4483292627043019
sg6
F0.07003915437300649
sg7
F0.7633157406825174
sg8
F-0.7415073028888943
sg9
F0.3535533873061122
sg10
F0.589246157665676
sg11
F-0.3762267155347766
sg12
F1.0748408469127049
sg13
F-0.2731791823540361
sg14
F0.2029721579363614
sg15
F-0.5154034056061622
sg16
F0.0
sg17
F0.9379696474252862
sg18
F1.5938648161505933
sg19
F0.041135282052422666
sg20
F0.6837486711440917
ssS'JAEDICKE ROBERT'
p237
(dp238
g3
F-0.6199759729323067
sg4
F0.047715938705588684
sg5
F-0.9449345053869213
sg6
F0.19756390122202544
sg7
F-1.2007003315958937
sg8
F0.0535947909913842
sg9
F-2.8274428026315634
sg10
F-1.0917244814899822
sg11
F-0.4355500350305591
sg12
F-1.501339223082566
sg13
F3.6606020015650924
sg14
F-1.248839269627727
sg15
F1.5369222021231057
sg16
F0.0
sg17
F-1.0220665982659085
sg18
F-0.008922446580896817
sg19
F-0.4483800309514479
sg20
F-1.3996527993685899
ssS'WINOKUR JR. HERBERT S'
p239
(dp240
g3
F-0.5558781513843727
sg4
F-0.015881448141292324
sg5
F-0.24715663201564222
sg6
F-1.2991148386302558
sg7
F-1.0512128304478323
sg8
F0.025002902481447216
sg9
F0.3779644564309431
sg10
F-0.9692756726288899
sg11
F-1.7836214628190477
sg12
F0.055178323083147386
sg13
F2.4905787887018493
sg14
F-1.0611890122833179
sg15
F-0.8639643817843111
sg16
F0.0
sg17
F-0.7969981590536745
sg18
F-0.0024706649494493117
sg19
F-1.560142189471907
sg20
F-1.1999921686272206
ssS'BROWN MICHAEL'
p241
(dp242
g3
F-0.6199759729323067
sg4
F-1.1923750144661058
sg5
F-1.0987076351669205
sg6
F-1.530296482792952
sg7
F-1.2007003315958937
sg8
F-1.031506453760955
sg9
F0.3535533873061122
sg10
F-1.0917244814899822
sg11
F-2.1551277242844487
sg12
F0.6230845080460643
sg13
F-0.2731791823540361
sg14
F-1.248839269627727
sg15
F-0.996587696449088
sg16
F0.0
sg17
F-1.0220665982659085
sg18
F0.022250710628434457
sg19
F-1.6699789146305961
sg20
F0.6837486711440917
ssS'BADUM JAMES P'
p243
(dp244
g3
F1.7955170815957615
sg4
F-0.015881448141292324
sg5
F-0.048087870097982426
sg6
F0.31951301144642336
sg7
F-1.0512128304478323
sg8
F0.025002902481447216
sg9
F0.3779644564309431
sg10
F-0.9692756726288899
sg11
F-0.2521775421243492
sg12
F0.25815528264327875
sg13
F-0.4016096198857647
sg14
F-1.0611890122833179
sg15
F1.000555685673739
sg16
F0.0
sg17
F-0.7969981590536745
sg18
F-0.0024706649494493117
sg19
F-1.560142189471907
sg20
F0.7493539321889346
ssS'HUGHES JAMES A'
p245
(dp246
g3
F-0.5558781513843727
sg4
F0.7590268205043132
sg5
F-1.6253624056949656
sg6
F0.5541821046422069
sg7
F-1.0512128304478323
sg8
F0.025002902481447216
sg9
F0.3779644564309431
sg10
F-0.9692756726288899
sg11
F0.24030784161696572
sg12
F-1.1907155482699148
sg13
F-0.4016096198857647
sg14
F-1.0611890122833179
sg15
F-0.8639643817843111
sg16
F0.0
sg17
F-0.7969981590536745
sg18
F-0.3744502932656283
sg19
F0.3517257265921976
sg20
F0.7493539321889346
ssS'REYNOLDS LAWRENCE'
p247
(dp248
g3
F1.566712735689261
sg4
F0.047715938705588684
sg5
F-0.3460170598872405
sg6
F1.0292289013616571
sg7
F0.3764907753554674
sg8
F0.0535947909913842
sg9
F-2.8282897439043135
sg10
F0.18580409213565516
sg11
F0.8777279188736238
sg12
F-0.0941206540877746
sg13
F-0.2731791823540361
sg14
F1.0907978475262023
sg15
F1.7382143690602576
sg16
F0.0
sg17
F0.783396053797004
sg18
F-0.008922446580896817
sg19
F0.02115455516369116
sg20
F-1.504227714859169
ssS'PICKERING MARK R'
p249
(dp250
g3
F-0.6199759729323067
sg4
F-1.274766593614075
sg5
F0.36167672902283815
sg6
F-0.48261836479053677
sg7
F0.6076742963046541
sg8
F-1.4370165082991035
sg9
F0.3535533873061122
sg10
F0.04471201644056664
sg11
F-1.2962046007425319
sg12
F0.41888834966531363
sg13
F-0.2731791823540361
sg14
F-1.248839269627727
sg15
F-0.9314843095405212
sg16
F0.0
sg17
F-1.0220665982659085
sg18
F-0.024731732386177156
sg19
F-1.6699789146305961
sg20
F0.6837486711440917
ssS'BHATNAGAR SANJAY'
p251
(dp252
g3
F-0.5558781513843727
sg4
F-1.8521076988884697
sg5
F-0.1236760201456975
sg6
F1.337987330289449
sg7
F-1.0512128304478323
sg8
F-1.2513401341457446
sg9
F-2.646974299693394
sg10
F-0.9692756726288899
sg11
F1.494822099942098
sg12
F1.2280708179265913
sg13
F-0.4016096198857647
sg14
F-1.0611890122833179
sg15
F2.0640687119956413
sg16
F0.0
sg17
F-0.7969981590536745
sg18
F-0.5810665980099842
sg19
F1.1606959917668542
sg20
F0.7493539321889346
ssS'BUCHANAN HAROLD G'
p253
(dp254
g3
F-0.5558781513843727
sg4
F-1.8521076988884697
sg5
F0.5010553155244634
sg6
F0.5746422087680422
sg7
F0.8527411740405929
sg8
F-1.7815134893218851
sg9
F0.3779644564309431
sg10
F0.7786427566982668
sg11
F0.20364857970225142
sg12
F-0.12596365757887237
sg13
F-0.4016096198857647
sg14
F0.33635170253919544
sg15
F0.5563932357259493
sg16
F0.0
sg17
F1.2319361851550534
sg18
F-2.0184387628515306
sg19
F0.13459193025375718
sg20
F0.7493539321889346
ssS'YEAP SOON'
p255
(dp256
g3
F-0.6199759729323067
sg4
F0.047715938705588684
sg5
F-1.0681912277422971
sg6
F-0.03529536185988923
sg7
F-1.2007003315958937
sg8
F0.0535947909913842
sg9
F0.3535533873061122
sg10
F-1.0917244814899822
sg11
F-0.7525705140376316
sg12
F0.6773839398501454
sg13
F-0.2731791823540361
sg14
F-1.248839269627727
sg15
F1.3716905060099605
sg16
F0.0
sg17
F-1.0220665982659085
sg18
F-0.008922446580896817
sg19
F-1.6699789146305961
sg20
F0.6837486711440917
ssS'MURRAY JULIA H'
p257
(dp258
g3
F-0.6199759729323067
sg4
F-1.5253132798265807
sg5
F0.031021303264576628
sg6
F0.17461474187181275
sg7
F0.6713216623793076
sg8
F-0.7369626884788972
sg9
F0.3535533873061122
sg10
F0.8664309410864827
sg11
F-0.28943926394360525
sg12
F0.6992049374974811
sg13
F-0.2731791823540361
sg14
F-0.17934687501534827
sg15
F0.043606265337839685
sg16
F0.0
sg17
F0.7487902945001392
sg18
F-0.6014927733362555
sg19
F0.013138313255349046
sg20
F0.6837486711440917
ssS'GARLAND C KEVIN'
p259
(dp260
g3
F-0.6199759729323067
sg4
F1.0258398499996417
sg5
F0.4439419055883398
sg6
F0.3202058670313271
sg7
F0.8445334985323335
sg8
F1.9534981004472147
sg9
F0.3535533873061122
sg10
F0.9724397874435539
sg11
F-0.09032778392682161
sg12
F0.6143882803542717
sg13
F-0.2731791823540361
sg14
F0.845710932770339
sg15
F-0.08465179643605202
sg16
F0.0
sg17
F0.9196369410100509
sg18
F-1.1850768949666926
sg19
F0.1139320421745146
sg20
F0.6837486711440917
ssS'DODSON KEITH'
p261
(dp262
g3
F-0.6199759729323067
sg4
F1.3149755462719792
sg5
F-0.44229995910997466
sg6
F-1.530296482792952
sg7
F0.3053153034629592
sg8
F0.8304875710441615
sg9
F0.3535533873061122
sg10
F0.05438365621652328
sg11
F-2.1551277242844487
sg12
F0.3679986437929147
sg13
F-0.2731791823540361
sg14
F-0.016324618007188426
sg15
F-0.996587696449088
sg16
F0.0
sg17
F-1.0220665982659085
sg18
F-1.4447457097235947
sg19
F-1.6699789146305961
sg20
F0.6837486711440917
ssS'YEAGER F SCOTT'
p263
(dp264
g3
F-0.5558781513843727
sg4
F-0.015881448141292324
sg5
F0.1485903625138843
sg6
F1.1603541503297823
sg7
F-1.0512128304478323
sg8
F0.025002902481447216
sg9
F0.3779644564309431
sg10
F-0.9692756726288899
sg11
F1.3426770393001772
sg12
F0.956902163066906
sg13
F-0.4016096198857647
sg14
F1.0866764958863377
sg15
F1.9992976699278424
sg16
F1.0
sg17
F-0.7969981590536745
sg18
F-0.0024706649494493117
sg19
F1.3162935822018602
sg20
F0.7493539321889346
ssS'HIRKO JOSEPH'
p265
(dp266
g3
F1.7100963313219455
sg4
F-0.015881448141292324
sg5
F-0.22998321985204645
sg6
F1.5460298469957612
sg7
F-1.0512128304478323
sg8
F0.025002902481447216
sg9
F0.3779644564309431
sg10
F-0.9692756726288899
sg11
F1.92713657204238
sg12
F1.061305205201171
sg13
F-0.4016096198857647
sg14
F0.4801567393428533
sg15
F2.0736110378906307
sg16
F1.0
sg17
F-0.7969981590536745
sg18
F-0.0024706649494493117
sg19
F-1.560142189471907
sg20
F0.7493539321889346
ssS'DIETRICH JANET R'
p267
(dp268
g3
F-0.5558781513843727
sg4
F1.9290532502596327
sg5
F0.606212944881683
sg6
F0.7234560336671867
sg7
F0.8823472774613202
sg8
F0.608456682180146
sg9
F0.3779644564309431
sg10
F0.6728576521296119
sg11
F0.44286761047169193
sg12
F0.2574226408325021
sg13
F-0.4016096198857647
sg14
F0.17217902359367748
sg15
F0.814916671875439
sg16
F0.0
sg17
F1.2759879959495406
sg18
F0.9647109958695784
sg19
F0.3023435360839971
sg20
F0.7493539321889346
ssS'DERRICK JR. JAMES V'
p269
(dp270
g3
F-0.6199759729323067
sg4
F0.21341239689415564
sg5
F-0.18066859112680125
sg6
F1.3759496190684888
sg7
F0.8302490432437946
sg8
F-1.0688058028764904
sg9
F-2.8288400741964947
sg10
F1.9428529896996267
sg11
F1.4819342226869998
sg12
F0.6407751494612804
sg13
F-0.2731791823540361
sg14
F0.4262130141325897
sg15
F1.808748590238626
sg16
F0.0
sg17
F0.9592853242668505
sg18
F0.7515926374989469
sg19
F0.982711966429165
sg20
F-1.5667170695253636
ssS'FREVERT MARK A'
p271
(dp272
g3
F1.836610024466667
sg4
F1.3726939335500459
sg5
F1.719678181956266
sg6
F1.2244611890071646
sg7
F1.080207985597758
sg8
F0.9893229813503743
sg9
F0.3779644564309431
sg10
F-0.3392272677495305
sg11
F1.4621324593291107
sg12
F1.0927983306023745
sg13
F-0.4016096198857647
sg14
F1.6040843074403306
sg15
F0.3625367029785647
sg16
F0.0
sg17
F1.3474035651076073
sg18
F1.663856286934608
sg19
F1.3968518636130676
sg20
F-1.4892884975067537
ssS'PAI LOU L'
p273
(dp274
g3
F-0.6199759729323067
sg4
F0.047715938705588684
sg5
F0.9642740545332288
sg6
F1.6577951747928428
sg7
F0.8831381546815805
sg8
F0.0535947909913842
sg9
F0.3535533873061122
sg10
F0.4111713591957642
sg11
F2.4828222593700113
sg12
F0.4243490833984726
sg13
F-0.2731791823540361
sg14
F1.5496003807812675
sg15
F1.5192550096947128
sg16
F0.0
sg17
F-1.0220665982659085
sg18
F-0.008922446580896817
sg19
F1.9546480067515588
sg20
F0.6837486711440917
ssS'BAY FRANKLIN R'
p275
(dp276
g3
F1.8021823047266174
sg4
F-0.015881448141292324
sg5
F0.41671091244332825
sg6
F-1.2991148386302558
sg7
F0.8166327094416322
sg8
F0.025002902481447216
sg9
F-2.6455761167171348
sg10
F0.7974473433972192
sg11
F-0.6225515022656143
sg12
F1.2086119548397494
sg13
F-0.4016096198857647
sg14
F-0.17997243769861562
sg15
F-0.8639643817843111
sg16
F0.0
sg17
F-0.7969981590536745
sg18
F-0.0024706649494493117
sg19
F0.05437780496550338
sg20
F-1.3490189887770883
ssS'HAYSLETT RODERICK J'
p277
(dp278
g3
F-0.6199759729323067
sg4
F-0.8295448033985501
sg5
F-2.044597651716298
sg6
F-1.530296482792952
sg7
F-1.2007003315958937
sg8
F-0.8597304142242631
sg9
F0.3535533873061122
sg10
F-1.0917244814899822
sg11
F-0.528011075207916
sg12
F-1.501339223082566
sg13
F-0.2731791823540361
sg14
F-1.248839269627727
sg15
F-0.996587696449088
sg16
F0.0
sg17
F-1.0220665982659085
sg18
F-0.2692305059425607
sg19
F0.22442493360981286
sg20
F0.6837486711440917
ssS'FUGH JOHN L'
p279
(dp280
g3
F1.5660948586482326
sg4
F0.047715938705588684
sg5
F-1.0916428010929398
sg6
F-0.05922230366891287
sg7
F-1.2007003315958937
sg8
F0.0535947909913842
sg9
F0.3535533873061122
sg10
F-1.0917244814899822
sg11
F-0.7838726512966077
sg12
F-1.501339223082566
sg13
F-0.2731791823540361
sg14
F-1.248839269627727
sg15
F1.370002785028685
sg16
F0.0
sg17
F-1.0220665982659085
sg18
F-0.008922446580896817
sg19
F-1.6699789146305961
sg20
F0.6837486711440917
ssS'SCRIMSHAW MATTHEW'
p281
(dp282
g3
F-0.5558781513843727
sg4
F-0.015881448141292324
sg5
F-1.6253624056949656
sg6
F0.5555667689595288
sg7
F-1.0512128304478323
sg8
F0.025002902481447216
sg9
F0.3779644564309431
sg10
F-0.9692756726288899
sg11
F0.09832613772532664
sg12
F-1.1907155482699148
sg13
F-0.4016096198857647
sg14
F-1.0611890122833179
sg15
F-0.8639643817843111
sg16
F0.0
sg17
F-0.7969981590536745
sg18
F-0.0024706649494493117
sg19
F-1.560142189471907
sg20
F0.7493539321889346
ssS'KOENIG MARK E'
p283
(dp284
g3
F-0.6199759729323067
sg4
F-0.1941194116754023
sg5
F0.45307278143807744
sg6
F0.337964653641201
sg7
F0.7990071338730871
sg8
F1.0037260905381233
sg9
F0.3535533873061122
sg10
F0.7463880443942223
sg11
F0.34070815575879637
sg12
F1.1255907670234206
sg13
F-0.2731791823540361
sg14
F1.0302949099709533
sg15
F-0.058282219443548486
sg16
F1.0
sg17
F0.8847649899471438
sg18
F1.454097723429104
sg19
F0.7960506255682506
sg20
F0.6837486711440917
ssS'SAVAGE FRANK'
p285
(dp286
g3
F-0.5558781513843727
sg4
F-0.015881448141292324
sg5
F-0.8668077056526975
sg6
F-1.2991148386302558
sg7
F-1.0512128304478323
sg8
F0.025002902481447216
sg9
F0.3779644564309431
sg10
F-0.9692756726288899
sg11
F-1.7836214628190477
sg12
F-1.1907155482699148
sg13
F2.490738132099099
sg14
F-1.0611890122833179
sg15
F-0.8639643817843111
sg16
F0.0
sg17
F-0.7969981590536745
sg18
F-0.0024706649494493117
sg19
F-1.560142189471907
sg20
F-1.3168527695121577
ssS'IZZO LAWRENCE L'
p287
(dp288
g3
F-0.5558781513843727
sg4
F0.9823869518340076
sg5
F0.7345118811546807
sg6
F0.8056248274989687
sg7
F-1.0512128304478323
sg8
F0.8638268278813312
sg9
F0.3779644564309431
sg10
F-0.9692756726288899
sg11
F0.9619527423821158
sg12
F0.7783550898441788
sg13
F-0.4016096198857647
sg14
F1.4066535796215296
sg15
F0.8113404071978229
sg16
F0.0
sg17
F1.233818222124144
sg18
F-0.6278337274023333
sg19
F1.327253151519859
sg20
F0.7493539321889346
ssS'TILNEY ELIZABETH A'
p289
(dp290
g3
F-0.5558781513843727
sg4
F-0.35890841742979696
sg5
F0.18008240459981045
sg6
F0.49893379279546035
sg7
F0.7702854200089749
sg8
F1.9957204202141525
sg9
F0.3779644564309431
sg10
F1.2267081363794086
sg11
F0.25683662709482047
sg12
F-1.1907155482699148
sg13
F-0.4016096198857647
sg14
F1.0905691191880678
sg15
F1.0338780312584868
sg16
F0.0
sg17
F1.224115008460813
sg18
F-0.7386264264400451
sg19
F0.519370660069221
sg20
F-1.4081558558783105
ssS'GATHMANN WILLIAM D'
p291
(dp292
g3
F-0.5558781513843727
sg4
F-0.015881448141292324
sg5
F-1.6253624056949656
sg6
F0.7535510634206868
sg7
F-1.0512128304478323
sg8
F0.025002902481447216
sg9
F-2.6454308019134687
sg10
F-0.9692756726288899
sg11
F0.4603552763849358
sg12
F-1.1907155482699148
sg13
F-0.4016096198857647
sg14
F-1.0611890122833179
sg15
F-0.8639643817843111
sg16
F0.0
sg17
F-0.7969981590536745
sg18
F-0.0024706649494493117
sg19
F0.24273791836037342
sg20
F0.7493539321889346
ssS'MARTIN AMANDA K'
p293
(dp294
g3
F1.5861448595466632
sg4
F-1.503208337970447
sg5
F1.9022057659684177
sg6
F0.7415883518278572
sg7
F-1.2007003315958937
sg8
F-1.4370165082991035
sg9
F0.3535533873061122
sg10
F-1.0917244814899822
sg11
F0.38777399426766945
sg12
F-0.1021489106007761
sg13
F-0.2731791823540361
sg14
F1.6409938196549452
sg15
F-0.36967778285542285
sg16
F0.0
sg17
F1.3299867709404207
sg18
F-0.43694350575956054
sg19
F-1.6699789146305961
sg20
F0.6837486711440917
ssS'BUY RICHARD B'
p295
(dp296
g3
F1.815577572542699
sg4
F0.6160801842141742
sg5
F0.8028198926478299
sg6
F0.8459717007698494
sg7
F0.9485230280917809
sg8
F-0.8141075138480423
sg9
F0.3779644564309431
sg10
F0.5695172877982385
sg11
F0.7102179303912415
sg12
F-1.1907155482699148
sg13
F-0.4016096198857647
sg14
F1.225741358474028
sg15
F0.8013927853224689
sg16
F0.0
sg17
F1.298596946916309
sg18
F1.267774090284263
sg19
F0.6936685896616277
sg20
F-1.4178969488312763
ssS'GRAMM WENDY L'
p297
(dp298
g3
F-0.6199759729323067
sg4
F0.047715938705588684
sg5
F-0.8293933986680565
sg6
F-1.530296482792952
sg7
F-1.2007003315958937
sg8
F0.0535947909913842
sg9
F0.3535533873061122
sg10
F-1.0917244814899822
sg11
F-2.1551277242844487
sg12
F-1.501339223082566
sg13
F3.6606021920101846
sg14
F-1.248839269627727
sg15
F-0.996587696449088
sg16
F0.0
sg17
F-1.0220665982659085
sg18
F-0.008922446580896817
sg19
F-1.6699789146305961
sg20
F0.6837486711440917
ssS'CAUSEY RICHARD A'
p299
(dp300
g3
F-0.6199759729323067
sg4
F0.2826568053157445
sg5
F0.5679123447678476
sg6
F-1.530296482792952
sg7
F0.8831381546815805
sg8
F0.9986057300839417
sg9
F0.3535533873061122
sg10
F0.9571885377709064
sg11
F0.5099372182458543
sg12
F0.405080692515357
sg13
F-0.2731791823540361
sg14
F1.1776010353071216
sg15
F-0.996587696449088
sg16
F1.0
sg17
F0.9087639941674381
sg18
F0.9195944361132898
sg19
F1.1695361455185849
sg20
F-1.5106337658297007
ssS'TAYLOR MITCHELL S'
p301
(dp302
g3
F1.799861677007491
sg4
F-1.8521076988884697
sg5
F0.5136334108030594
sg6
F0.9030958326832783
sg7
F0.8823472774613202
sg8
F-1.7815134893218851
sg9
F0.3779644564309431
sg10
F0.9231082133693186
sg11
F0.7488840419737106
sg12
F-1.1907155482699148
sg13
F-0.4016096198857647
sg14
F-1.0611890122833179
sg15
F1.4567756658042943
sg16
F0.0
sg17
F-0.7969981590536745
sg18
F-0.9075631240890563
sg19
F0.5108086460616192
sg20
F0.7493539321889346
ssS'DONAHUE JR JEFFREY M'
p303
(dp304
g3
F-0.5558781513843727
sg4
F2.2823217398085394
sg5
F0.43609726726296494
sg6
F0.5574732439725689
sg7
F0.9292520050733396
sg8
F1.80777656052908
sg9
F0.3779644564309431
sg10
F1.4062721898290147
sg11
F0.22744734157918567
sg12
F1.1222118487970312
sg13
F-0.4016096198857647
sg14
F0.28301049776130993
sg15
F0.6411375004576169
sg16
F0.0
sg17
F-0.7969981590536745
sg18
F-0.11764169216911574
sg19
F0.3023435360839971
sg20
F-1.3725259480460001
ssS'GLISAN JR BEN F'
p305
(dp306
g3
F-0.5558781513843727
sg4
F1.062439648803703
sg5
F0.5684140407965982
sg6
F0.4044959411144518
sg7
F0.8823472774613202
sg8
F1.400466161644864
sg9
F0.3779644564309431
sg10
F0.7734503112111248
sg11
F0.10711153253948778
sg12
F1.2012492188091275
sg13
F-0.4016096198857647
sg14
F1.1295433269474797
sg15
F-0.09859377142949166
sg16
F1.0
sg17
F1.1127451398237058
sg18
F0.009590217217202615
sg19
F0.37999548076129214
sg20
F0.7493539321889346
ss.