(dp0
S'METTS MARK'
p1
(dp2
S'deferral_payments'
p3
F0.0
sS'fromPOI_rate'
p4
F0.04708798017348203
sS'long_term_incentive_total_payments_rate'
p5
F0.0
sS'expenses'
p6
F94299.0
sS'poi'
p7
F0.0
sS'long_term_incentive'
p8
F0.0
sS'from_poi_to_this_person'
p9
F38.0
sS'deferred_income'
p10
F0.0
sS'exer_stock_options_deferral_payments_rate'
p11
F0.0
sS'toPOI_rate'
p12
F0.034482758620689655
sS'restricted_stock_deferred'
p13
F0.0
sS'shared_receipt_with_poi'
p14
F702.0
sS'bonus_deferral_payments_rate'
p15
F0.0
sS'other'
p16
F1740.0
sS'director_fees'
p17
F0.0
sS'bonus'
p18
F600000.0
sS'total_stock_value'
p19
F585062.0
sS'exer_stock_options_total_payments_rate'
p20
F0.0
sS'from_this_person_to_poi'
p21
F1.0
sS'restricted_stock'
p22
F585062.0
sS'salary'
p23
F365788.0
sS'total_payments'
p24
F1061827.0
sS'bonus_total_payments_rate'
p25
F0.5650638004119315
sS'exercised_stock_options'
p26
F0.0
sS'rest_stock_deferral_payments_rate'
p27
F0.0
ssS'BAXTER JOHN C'
p28
(dp29
g3
F1295738.0
sg4
F0.02763592670471613
sg5
F0.2814977717898964
sg6
F11200.0
sg7
F0.0
sg8
F1586055.0
sg9
F35.0
sg10
F-1386055.0
sg11
F5.155783036385442
sg12
F0.07075127644055434
sg13
F0.0
sg14
F740.5
sg15
F0.926113149417552
sg16
F2660303.0
sg17
F0.0
sg18
F1200000.0
sg19
F10623258.0
sg20
F1.1856828737618565
sg21
F8.0
sg22
F3942714.0
sg23
F267102.0
sg24
F5634343.0
sg25
F0.21297957898551792
sg26
F6680544.0
sg27
F3.042832733160562
ssS'ELLIOTT STEVEN'
p30
(dp31
g3
F0.0
sg4
F0.024628450106157114
sg5
F0.0
sg6
F78552.0
sg7
F0.0
sg8
F0.0
sg9
F35.0
sg10
F-400729.0
sg11
F0.0
sg12
F0.2222222222222222
sg13
F0.0
sg14
F772.0
sg15
F0.0
sg16
F12961.0
sg17
F0.0
sg18
F350000.0
sg19
F6678735.0
sg20
F23.097621915220216
sg21
F8.0
sg22
F1788391.0
sg23
F170941.0
sg24
F211725.0
sg25
F1.6530877317274766
sg26
F4890344.0
sg27
F0.0
ssS'CORDES WILLIAM R'
p32
(dp33
g3
F0.0
sg4
F0.013089005235602094
sg5
F0.0
sg6
F0.0
sg7
F0.0
sg8
F0.0
sg9
F10.0
sg10
F0.0
sg11
F0.0
sg12
F0.0
sg13
F0.0
sg14
F58.0
sg15
F0.0
sg16
F0.0
sg17
F0.0
sg18
F0.0
sg19
F1038185.0
sg20
F0.0
sg21
F0.0
sg22
F386335.0
sg23
F0.0
sg24
F0.0
sg25
F0.0
sg26
F651850.0
sg27
F0.0
ssS'HANNON KEVIN P'
p34
(dp35
g3
F0.0
sg4
F0.03062200956937799
sg5
F5.60135720273519
sg6
F34039.0
sg7
F1.0
sg8
F1617011.0
sg9
F32.0
sg10
F-3117011.0
sg11
F0.0
sg12
F0.65625
sg13
F0.0
sg14
F1035.0
sg15
F0.0
sg16
F11350.0
sg17
F0.0
sg18
F1500000.0
sg19
F6391065.0
sg20
F19.18374197213543
sg21
F21.0
sg22
F853064.0
sg23
F243293.0
sg24
F288682.0
sg25
F5.196028848352166
sg26
F5538001.0
sg27
F0.0
ssS'MORDAUNT KRISTINA M'
p36
(dp37
g3
F0.0
sg4
F0.024628450106157114
sg5
F0.0
sg6
F35018.0
sg7
F0.0
sg8
F0.0
sg9
F35.0
sg10
F0.0
sg11
F0.0
sg12
F0.2222222222222222
sg13
F0.0
sg14
F772.0
sg15
F0.0
sg16
F1411.0
sg17
F0.0
sg18
F325000.0
sg19
F208510.0
sg20
F0.0
sg21
F8.0
sg22
F208510.0
sg23
F267093.0
sg24
F628522.0
sg25
F0.5170861163173286
sg26
F0.0
sg27
F0.0
ssS'MEYER ROCKFORD G'
p38
(dp39
g3
F1848227.0
sg4
F0.0
sg5
F0.0
sg6
F0.0
sg7
F0.0
sg8
F0.0
sg9
F0.0
sg10
F0.0
sg11
F0.2670067042630586
sg12
F0.0
sg13
F0.0
sg14
F22.0
sg15
F0.0
sg16
F0.0
sg17
F0.0
sg18
F0.0
sg19
F955873.0
sg20
F0.2670067042630586
sg21
F0.0
sg22
F462384.0
sg23
F0.0
sg24
F1848227.0
sg25
F0.0
sg26
F493489.0
sg27
F0.25017706158388553
ssS'MCMAHON JEFFREY'
p40
(dp41
g3
F0.0
sg4
F0.024628450106157114
sg5
F0.16948800311041762
sg6
F137108.0
sg7
F0.0
sg8
F694862.0
sg9
F58.0
sg10
F0.0
sg11
F0.0
sg12
F0.5416666666666666
sg13
F0.0
sg14
F2228.0
sg15
F0.0
sg16
F297353.0
sg17
F0.0
sg18
F2600000.0
sg19
F1662855.0
sg20
F0.2692965046096477
sg21
F26.0
sg22
F558801.0
sg23
F370448.0
sg24
F4099771.0
sg25
F0.6341817628350461
sg26
F1104054.0
sg27
F0.0
ssS'HORTON STANLEY C'
p42
(dp43
g3
F3131860.0
sg4
F0.01872340425531915
sg5
F0.0
sg6
F0.0
sg7
F0.0
sg8
F0.0
sg9
F44.0
sg10
F0.0
sg11
F1.6637298602108652
sg12
F0.013979496738117428
sg13
F0.0
sg14
F1074.0
sg15
F0.0
sg16
F0.0
sg17
F0.0
sg18
F0.0
sg19
F7256648.0
sg20
F1.6637298602108652
sg21
F15.0
sg22
F2046079.0
sg23
F0.0
sg24
F3131860.0
sg25
F0.0
sg26
F5210569.0
sg27
F0.6533111314043412
ssS'PIPER GREGORY F'
p44
(dp45
g3
F1130036.0
sg4
F0.049273021001615507
sg5
F0.0
sg6
F43057.0
sg7
F0.0
sg8
F0.0
sg9
F61.0
sg10
F-33333.0
sg11
F0.7789928816427087
sg12
F0.21621621621621623
sg13
F-409554.0
sg14
F742.0
sg15
F0.35397102393198093
sg16
F778.0
sg17
F0.0
sg18
F400000.0
sg19
F880290.0
sg20
F0.5066041139967162
sg21
F48.0
sg22
F409554.0
sg23
F197091.0
sg24
F1737629.0
sg25
F0.23019873632403695
sg26
F880290.0
sg27
F0.3624256218385963
ssS'HUMPHREY GENE E'
p46
(dp47
g3
F2964506.0
sg4
F0.078125
sg5
F0.0
sg6
F4994.0
sg7
F0.0
sg8
F0.0
sg9
F10.0
sg10
F0.0
sg11
F0.7700331859675777
sg12
F1.0
sg13
F0.0
sg14
F119.0
sg15
F0.0
sg16
F0.0
sg17
F0.0
sg18
F0.0
sg19
F2282768.0
sg20
F0.7363235688776036
sg21
F17.0
sg22
F0.0
sg23
F130724.0
sg24
F3100224.0
sg25
F0.0
sg26
F2282768.0
sg27
F0.0
ssS'UMANOFF ADAM S'
p48
(dp49
g3
F0.0
sg4
F0.10810810810810811
sg5
F0.0
sg6
F53122.0
sg7
F0.0
sg8
F0.0
sg9
F12.0
sg10
F0.0
sg11
F0.0
sg12
F0.0
sg13
F0.0
sg14
F41.0
sg15
F0.0
sg16
F0.0
sg17
F0.0
sg18
F788750.0
sg19
F0.0
sg20
F0.0
sg21
F0.0
sg22
F0.0
sg23
F288589.0
sg24
F1130461.0
sg25
F0.6977242027809893
sg26
F0.0
sg27
F0.0
ssS'BLACHMAN JEREMY M'
p50
(dp51
g3
F0.0
sg4
F0.010101010101010102
sg5
F0.4128422426650321
sg6
F84208.0
sg7
F0.0
sg8
F831809.0
sg9
F25.0
sg10
F0.0
sg11
F0.0
sg12
F0.14285714285714285
sg13
F0.0
sg14
F2326.0
sg15
F0.0
sg16
F272.0
sg17
F0.0
sg18
F850000.0
sg19
F954354.0
sg20
F0.37983904389193157
sg21
F2.0
sg22
F189041.0
sg23
F248546.0
sg24
F2014835.0
sg25
F0.4218707735372872
sg26
F765313.0
sg27
F0.0
ssS'SUNDE MARTIN'
p52
(dp53
g3
F0.0
sg4
F0.013978088401964487
sg5
F0.30837074830152117
sg6
F0.0
sg7
F0.0
sg8
F476451.0
sg9
F37.0
sg10
F0.0
sg11
F0.0
sg12
F0.34210526315789475
sg13
F0.0
sg14
F2565.0
sg15
F0.0
sg16
F111122.0
sg17
F0.0
sg18
F700000.0
sg19
F698920.0
sg20
F0.0
sg21
F13.0
sg22
F698920.0
sg23
F257486.0
sg24
F1545059.0
sg25
F0.4530571324460749
sg26
F0.0
sg27
F0.0
ssS'GIBBS DANA R'
p54
(dp55
g3
F504610.0
sg4
F0.0
sg5
F0.47791152193121317
sg6
F0.0
sg7
F0.0
sg8
F461912.0
sg9
F0.0
sg10
F0.0
sg11
F4.396018707516696
sg12
F0.0
sg13
F0.0
sg14
F23.0
sg15
F0.0
sg16
F0.0
sg17
F0.0
sg18
F0.0
sg19
F2218275.0
sg20
F2.295110716569307
sg21
F0.0
sg22
F0.0
sg23
F0.0
sg24
F966522.0
sg25
F0.0
sg26
F2218275.0
sg27
F0.0
ssS'LOWRY CHARLES P'
p56
(dp57
g3
F0.0
sg4
F0.02763592670471613
sg5
F0.0
sg6
F0.0
sg7
F0.0
sg8
F0.0
sg9
F35.0
sg10
F0.0
sg11
F0.0
sg12
F0.07075127644055434
sg13
F-153686.0
sg14
F740.5
sg15
F0.0
sg16
F0.0
sg17
F0.0
sg18
F0.0
sg19
F372205.0
sg20
F0.0
sg21
F8.0
sg22
F153686.0
sg23
F0.0
sg24
F0.0
sg25
F0.0
sg26
F372205.0
sg27
F0.0
ssS'COLWELL WESLEY'
p58
(dp59
g3
F27610.0
sg4
F0.13651877133105803
sg5
F0.0
sg6
F16514.0
sg7
F1.0
sg8
F0.0
sg9
F240.0
sg10
F-144062.0
sg11
F0.0
sg12
F0.275
sg13
F0.0
sg14
F1132.0
sg15
F43.46251358203549
sg16
F101740.0
sg17
F0.0
sg18
F1200000.0
sg19
F698242.0
sg20
F0.0
sg21
F11.0
sg22
F698242.0
sg23
F288542.0
sg24
F1490344.0
sg25
F0.8051832328643588
sg26
F0.0
sg27
F25.289460340456355
ssS'MULLER MARK S'
p60
(dp61
g3
F842924.0
sg4
F0.08823529411764706
sg5
F0.5388842217690432
sg6
F0.0
sg7
F0.0
sg8
F1725545.0
sg9
F12.0
sg10
F-719000.0
sg11
F1.2531616136211567
sg12
F0.0
sg13
F0.0
sg14
F114.0
sg15
F1.3049812319971907
sg16
F947.0
sg17
F0.0
sg18
F1100000.0
sg19
F1416848.0
sg20
F0.3298866046026477
sg21
F0.0
sg22
F360528.0
sg23
F251654.0
sg24
F3202070.0
sg25
F0.3435277804670104
sg26
F1056320.0
sg27
F0.4277111578268029
ssS'JACKSON CHARLENE R'
p62
(dp63
g3
F0.0
sg4
F0.09689922480620156
sg5
F0.0
sg6
F10181.0
sg7
F0.0
sg8
F0.0
sg9
F25.0
sg10
F0.0
sg11
F0.0
sg12
F0.3392857142857143
sg13
F0.0
sg14
F117.0
sg15
F0.0
sg16
F2435.0
sg17
F0.0
sg18
F250000.0
sg19
F725735.0
sg20
F0.33576148366940384
sg21
F19.0
sg22
F540672.0
sg23
F288558.0
sg24
F551174.0
sg25
F0.453577273238578
sg26
F185063.0
sg27
F0.0
ssS'WESTFAHL RICHARD K'
p64
(dp65
g3
F0.0
sg4
F0.02763592670471613
sg5
F0.336149107441595
sg6
F51870.0
sg7
F0.0
sg8
F256191.0
sg9
F35.0
sg10
F-10800.0
sg11
F0.0
sg12
F0.07075127644055434
sg13
F0.0
sg14
F740.5
sg15
F0.0
sg16
F401130.0
sg17
F0.0
sg18
F0.0
sg19
F384930.0
sg20
F0.0
sg21
F8.0
sg22
F384930.0
sg23
F63744.0
sg24
F762135.0
sg25
F0.0
sg26
F0.0
sg27
F0.0
ssS'WALTERS GARETH W'
p66
(dp67
g3
F53625.0
sg4
F0.02763592670471613
sg5
F0.0
sg6
F33785.0
sg7
F0.0
sg8
F0.0
sg9
F35.0
sg10
F0.0
sg11
F19.213594405594407
sg12
F0.07075127644055434
sg13
F0.0
sg14
F740.5
sg15
F0.0
sg16
F0.0
sg17
F0.0
sg18
F0.0
sg19
F1030329.0
sg20
F11.787312664454868
sg21
F8.0
sg22
F0.0
sg23
F0.0
sg24
F87410.0
sg25
F0.0
sg26
F1030329.0
sg27
F0.0
ssS'WALLS JR ROBERT H'
p68
(dp69
g3
F0.0
sg4
F0.02533532041728763
sg5
F0.30062097643958685
sg6
F50936.0
sg7
F0.0
sg8
F540751.0
sg9
F17.0
sg10
F0.0
sg11
F0.0
sg12
F0.0
sg13
F0.0
sg14
F215.0
sg15
F0.0
sg16
F2.0
sg17
F0.0
sg18
F850000.0
sg19
F5898997.0
sg20
F2.4163844383415425
sg21
F0.0
sg22
F1552453.0
sg23
F357091.0
sg24
F1798780.0
sg25
F0.47254250102847484
sg26
F4346544.0
sg27
F0.0
ssS'KITCHEN LOUISE'
p70
(dp71
g3
F0.0
sg4
F0.030222757375075255
sg5
F0.0
sg6
F5774.0
sg7
F0.0
sg8
F0.0
sg9
F251.0
sg10
F0.0
sg11
F0.0
sg12
F0.11226851851851852
sg13
F0.0
sg14
F3669.0
sg15
F0.0
sg16
F93925.0
sg17
F0.0
sg18
F3100000.0
sg19
F547143.0
sg20
F0.023347366183050472
sg21
F194.0
sg22
F466101.0
sg23
F271442.0
sg24
F3471141.0
sg25
F0.8930780973748977
sg26
F81042.0
sg27
F0.0
ssS'PRENTICE JAMES'
p72
(dp73
g3
F564348.0
sg4
F0.024628450106157114
sg5
F0.0
sg6
F0.0
sg7
F0.0
sg8
F0.0
sg9
F35.0
sg10
F0.0
sg11
F1.5703626131394104
sg12
F0.2222222222222222
sg13
F0.0
sg14
F772.0
sg15
F0.0
sg16
F0.0
sg17
F0.0
sg18
F0.0
sg19
F1095040.0
sg20
F1.5703626131394104
sg21
F8.0
sg22
F208809.0
sg23
F0.0
sg24
F564348.0
sg25
F0.0
sg26
F886231.0
sg27
F0.37000042526951454
ssS'BELFER ROBERT'
p74
(dp75
g3
F0.0
sg4
F0.02763592670471613
sg5
F0.0
sg6
F3285.0
sg7
F0.0
sg8
F0.0
sg9
F35.0
sg10
F-102500.0
sg11
F0.0
sg12
F0.07075127644055434
sg13
F-44093.0
sg14
F740.5
sg15
F0.0
sg16
F0.0
sg17
F102500.0
sg18
F0.0
sg19
F0.0
sg20
F0.0
sg21
F8.0
sg22
F44093.0
sg23
F0.0
sg24
F3285.0
sg25
F0.0
sg26
F0.0
sg27
F0.0
ssS'SHANKMAN JEFFREY A'
p76
(dp77
g3
F0.0
sg4
F0.029183483390251473
sg5
F0.18245356076377348
sg6
F178979.0
sg7
F0.0
sg8
F554422.0
sg9
F94.0
sg10
F0.0
sg11
F0.0
sg12
F0.030958597538232
sg13
F0.0
sg14
F1730.0
sg15
F0.0
sg16
F1191.0
sg17
F0.0
sg18
F2000000.0
sg19
F2072035.0
sg20
F0.47451115640822955
sg21
F83.0
sg22
F630137.0
sg23
F304110.0
sg24
F3038702.0
sg25
F0.6581757605714545
sg26
F1441898.0
sg27
F0.0
ssS'WODRASKA JOHN'
p78
(dp79
g3
F0.0
sg4
F0.02763592670471613
sg5
F0.0
sg6
F0.0
sg7
F0.0
sg8
F0.0
sg9
F35.0
sg10
F0.0
sg11
F0.0
sg12
F0.07075127644055434
sg13
F0.0
sg14
F740.5
sg15
F0.0
sg16
F189583.0
sg17
F0.0
sg18
F0.0
sg19
F0.0
sg20
F0.0
sg21
F8.0
sg22
F0.0
sg23
F0.0
sg24
F189583.0
sg25
F0.0
sg26
F0.0
sg27
F0.0
ssS'BERGSIEKER RICHARD P'
p80
(dp81
g3
F0.0
sg4
F0.010443864229765013
sg5
F0.29126605801082656
sg6
F59175.0
sg7
F0.0
sg8
F180250.0
sg9
F4.0
sg10
F-485813.0
sg11
F0.0
sg12
F0.0
sg13
F0.0
sg14
F233.0
sg15
F0.0
sg16
F427316.0
sg17
F0.0
sg18
F250000.0
sg19
F659249.0
sg20
F0.0
sg21
F0.0
sg22
F659249.0
sg23
F187922.0
sg24
F618850.0
sg25
F0.4039751151329078
sg26
F0.0
sg27
F0.0
ssS'URQUHART JOHN A'
p82
(dp83
g3
F0.0
sg4
F0.02763592670471613
sg5
F0.0
sg6
F228656.0
sg7
F0.0
sg8
F0.0
sg9
F35.0
sg10
F-36666.0
sg11
F0.0
sg12
F0.07075127644055434
sg13
F0.0
sg14
F740.5
sg15
F0.0
sg16
F0.0
sg17
F36666.0
sg18
F0.0
sg19
F0.0
sg20
F0.0
sg21
F8.0
sg22
F0.0
sg23
F0.0
sg24
F228656.0
sg25
F0.0
sg26
F0.0
sg27
F0.0
ssS'BIBI PHILIPPE A'
p84
(dp85
g3
F0.0
sg4
F0.01431238332296204
sg5
F0.18056371554307912
sg6
F38559.0
sg7
F0.0
sg8
F369721.0
sg9
F23.0
sg10
F0.0
sg11
F0.0
sg12
F0.2
sg13
F0.0
sg14
F1336.0
sg15
F0.0
sg16
F425688.0
sg17
F0.0
sg18
F1000000.0
sg19
F1843816.0
sg20
F0.7158326874530241
sg21
F8.0
sg22
F378082.0
sg23
F213625.0
sg24
F2047593.0
sg25
F0.4883783056496091
sg26
F1465734.0
sg27
F0.0
ssS'PIRO JIM'
p86
(dp87
g3
F0.0
sg4
F0.0
sg5
F0.0
sg6
F0.0
sg7
F0.0
sg8
F0.0
sg9
F0.0
sg10
F0.0
sg11
F0.0
sg12
F0.0625
sg13
F0.0
sg14
F3.0
sg15
F0.0
sg16
F0.0
sg17
F0.0
sg18
F0.0
sg19
F47304.0
sg20
F0.0
sg21
F1.0
sg22
F47304.0
sg23
F0.0
sg24
F0.0
sg25
F0.0
sg26
F0.0
sg27
F0.0
ssS'RIEKER PAULA H'
p88
(dp89
g3
F214678.0
sg4
F0.02635542168674699
sg5
F0.0
sg6
F33271.0
sg7
F1.0
sg8
F0.0
sg9
F35.0
sg10
F-100000.0
sg11
F7.617166174456628
sg12
F0.5853658536585366
sg13
F0.0
sg14
F1258.0
sg15
F3.260697416596018
sg16
F1950.0
sg17
F0.0
sg18
F700000.0
sg19
F1918887.0
sg20
F1.487797288690747
sg21
F48.0
sg22
F283649.0
sg23
F249201.0
sg24
F1099100.0
sg25
F0.6368847238649804
sg26
F1635238.0
sg27
F1.3212765164572058
ssS'WHALEY DAVID A'
p90
(dp91
g3
F0.0
sg4
F0.02763592670471613
sg5
F0.0
sg6
F0.0
sg7
F0.0
sg8
F0.0
sg9
F35.0
sg10
F0.0
sg11
F0.0
sg12
F0.07075127644055434
sg13
F0.0
sg14
F740.5
sg15
F0.0
sg16
F0.0
sg17
F0.0
sg18
F0.0
sg19
F98718.0
sg20
F0.0
sg21
F8.0
sg22
F0.0
sg23
F0.0
sg24
F0.0
sg25
F0.0
sg26
F98718.0
sg27
F0.0
ssS'BECK SALLY W'
p92
(dp93
g3
F0.0
sg4
F0.01968557758031442
sg5
F0.0
sg6
F37172.0
sg7
F0.0
sg8
F0.0
sg9
F144.0
sg10
F0.0
sg11
F0.0
sg12
F0.08887865530739121
sg13
F0.0
sg14
F2639.0
sg15
F0.0
sg16
F566.0
sg17
F0.0
sg18
F700000.0
sg19
F126027.0
sg20
F0.0
sg21
F386.0
sg22
F126027.0
sg23
F231330.0
sg24
F969068.0
sg25
F0.7223435300721931
sg26
F0.0
sg27
F0.0
ssS'HAUG DAVID L'
p94
(dp95
g3
F0.0
sg4
F0.006980802792321117
sg5
F0.0
sg6
F475.0
sg7
F0.0
sg8
F0.0
sg9
F4.0
sg10
F0.0
sg11
F0.0
sg12
F0.3684210526315789
sg13
F0.0
sg14
F471.0
sg15
F0.0
sg16
F0.0
sg17
F0.0
sg18
F0.0
sg19
F2217299.0
sg20
F0.0
sg21
F7.0
sg22
F2217299.0
sg23
F0.0
sg24
F475.0
sg25
F0.0
sg26
F0.0
sg27
F0.0
ssS'ECHOLS JOHN B'
p96
(dp97
g3
F0.0
sg4
F0.02763592670471613
sg5
F0.8300538865307444
sg6
F21530.0
sg7
F0.0
sg8
F2234774.0
sg9
F35.0
sg10
F0.0
sg11
F0.0
sg12
F0.07075127644055434
sg13
F0.0
sg14
F740.5
sg15
F0.0
sg16
F53775.0
sg17
F0.0
sg18
F200000.0
sg19
F1008941.0
sg20
F0.22338990403829553
sg21
F8.0
sg22
F407503.0
sg23
F182245.0
sg24
F2692324.0
sg25
F0.07428526432925606
sg26
F601438.0
sg27
F0.0
ssS'MENDELSOHN JOHN'
p98
(dp99
g3
F0.0
sg4
F0.02763592670471613
sg5
F0.0
sg6
F148.0
sg7
F0.0
sg8
F0.0
sg9
F35.0
sg10
F-103750.0
sg11
F0.0
sg12
F0.07075127644055434
sg13
F0.0
sg14
F740.5
sg15
F0.0
sg16
F0.0
sg17
F103750.0
sg18
F0.0
sg19
F0.0
sg20
F0.0
sg21
F8.0
sg22
F0.0
sg23
F0.0
sg24
F148.0
sg25
F0.0
sg26
F0.0
sg27
F0.0
ssS'HICKERSON GARY J'
p100
(dp101
g3
F0.0
sg4
F0.030303030303030304
sg5
F0.03325157700370257
sg6
F98849.0
sg7
F0.0
sg8
F69223.0
sg9
F40.0
sg10
F0.0
sg11
F0.0
sg12
F0.037037037037037035
sg13
F0.0
sg14
F900.0
sg15
F0.0
sg16
F1936.0
sg17
F0.0
sg18
F1700000.0
sg19
F441096.0
sg20
F0.0
sg21
F1.0
sg22
F441096.0
sg23
F211788.0
sg24
F2081796.0
sg25
F0.8166025873812804
sg26
F0.0
sg27
F0.0
ssS'CLINE KENNETH W'
p102
(dp103
g3
F0.0
sg4
F0.02763592670471613
sg5
F0.0
sg6
F0.0
sg7
F0.0
sg8
F0.0
sg9
F35.0
sg10
F0.0
sg11
F0.0
sg12
F0.07075127644055434
sg13
F-472568.0
sg14
F740.5
sg15
F0.0
sg16
F0.0
sg17
F0.0
sg18
F0.0
sg19
F189518.0
sg20
F0.0
sg21
F8.0
sg22
F662086.0
sg23
F0.0
sg24
F0.0
sg25
F0.0
sg26
F0.0
sg27
F0.0
ssS'LEWIS RICHARD'
p104
(dp105
g3
F0.0
sg4
F0.01050420168067227
sg5
F0.0
sg6
F0.0
sg7
F0.0
sg8
F0.0
sg9
F10.0
sg10
F0.0
sg11
F0.0
sg12
F0.0
sg13
F0.0
sg14
F739.0
sg15
F0.0
sg16
F0.0
sg17
F0.0
sg18
F0.0
sg19
F850477.0
sg20
F0.0
sg21
F0.0
sg22
F0.0
sg23
F0.0
sg24
F0.0
sg25
F0.0
sg26
F850477.0
sg27
F0.0
ssS'HAYES ROBERT E'
p106
(dp107
g3
F7961.0
sg4
F0.031746031746031744
sg5
F0.0
sg6
F0.0
sg7
F0.0
sg8
F0.0
sg9
F16.0
sg10
F0.0
sg11
F0.0
sg12
F0.0
sg13
F0.0
sg14
F50.0
sg15
F0.0
sg16
F0.0
sg17
F0.0
sg18
F0.0
sg19
F151418.0
sg20
F0.0
sg21
F0.0
sg22
F151418.0
sg23
F0.0
sg24
F7961.0
sg25
F0.0
sg26
F0.0
sg27
F19.019972365280744
ssS'KOPPER MICHAEL J'
p108
(dp109
g3
F0.0
sg4
F0.02763592670471613
sg5
F0.22719907773922457
sg6
F118134.0
sg7
F1.0
sg8
F602671.0
sg9
F35.0
sg10
F0.0
sg11
F0.0
sg12
F0.07075127644055434
sg13
F0.0
sg14
F740.5
sg15
F0.0
sg16
F907502.0
sg17
F0.0
sg18
F800000.0
sg19
F985032.0
sg20
F0.0
sg21
F8.0
sg22
F985032.0
sg23
F224305.0
sg24
F2652612.0
sg25
F0.30158952760524343
sg26
F0.0
sg27
F0.0
ssS'LEFF DANIEL P'
p110
(dp111
g3
F0.0
sg4
F0.02374202693125443
sg5
F0.5207508516538374
sg6
F0.0
sg7
F0.0
sg8
F1387399.0
sg9
F67.0
sg10
F0.0
sg11
F0.0
sg12
F0.2222222222222222
sg13
F0.0
sg14
F2672.0
sg15
F0.0
sg16
F3083.0
sg17
F0.0
sg18
F1000000.0
sg19
F360528.0
sg20
F0.0
sg21
F14.0
sg22
F360528.0
sg23
F273746.0
sg24
F2664228.0
sg25
F0.3753432514034084
sg26
F0.0
sg27
F0.0
ssS'LAVORATO JOHN J'
p112
(dp113
g3
F0.0
sg4
F0.07273729163796666
sg5
F0.19522611163870404
sg6
F49537.0
sg7
F0.0
sg8
F2035380.0
sg9
F528.0
sg10
F0.0
sg11
F0.0
sg12
F0.15899419729206962
sg13
F0.0
sg14
F3962.0
sg15
F0.0
sg16
F1552.0
sg17
F0.0
sg18
F8000000.0
sg19
F5167144.0
sg20
F0.39891539770205653
sg21
F411.0
sg22
F1008149.0
sg23
F339288.0
sg24
F10425757.0
sg25
F0.767330372269371
sg26
F4158995.0
sg27
F0.0
ssS'BERBERIAN DAVID'
p114
(dp115
g3
F0.0
sg4
F0.02763592670471613
sg5
F0.0
sg6
F11892.0
sg7
F0.0
sg8
F0.0
sg9
F35.0
sg10
F0.0
sg11
F0.0
sg12
F0.07075127644055434
sg13
F0.0
sg14
F740.5
sg15
F0.0
sg16
F0.0
sg17
F0.0
sg18
F0.0
sg19
F2493616.0
sg20
F7.109763036494305
sg21
F8.0
sg22
F869220.0
sg23
F216582.0
sg24
F228474.0
sg25
F0.0
sg26
F1624396.0
sg27
F0.0
ssS'DETMERING TIMOTHY J'
p116
(dp117
g3
F875307.0
sg4
F0.02763592670471613
sg5
F0.34506298030106686
sg6
F52255.0
sg7
F0.0
sg8
F415657.0
sg9
F35.0
sg10
F-775241.0
sg11
F2.3167471527132766
sg12
F0.07075127644055434
sg13
F-315068.0
sg14
F740.5
sg15
F0.48554392915856953
sg16
F1105.0
sg17
F0.0
sg18
F425000.0
sg19
F2027865.0
sg20
F1.6834580929666116
sg21
F8.0
sg22
F315068.0
sg23
F210500.0
sg24
F1204583.0
sg25
F0.3528191913716199
sg26
F2027865.0
sg27
F0.35995142275795805
ssS'WAKEHAM JOHN'
p118
(dp119
g3
F0.0
sg4
F0.02763592670471613
sg5
F0.0
sg6
F103773.0
sg7
F0.0
sg8
F0.0
sg9
F35.0
sg10
F0.0
sg11
F0.0
sg12
F0.07075127644055434
sg13
F0.0
sg14
F740.5
sg15
F0.0
sg16
F0.0
sg17
F109298.0
sg18
F0.0
sg19
F0.0
sg20
F0.0
sg21
F8.0
sg22
F0.0
sg23
F0.0
sg24
F213071.0
sg25
F0.0
sg26
F0.0
sg27
F0.0
ssS'POWERS WILLIAM'
p120
(dp121
g3
F0.0
sg4
F0.0
sg5
F0.0
sg6
F0.0
sg7
F0.0
sg8
F0.0
sg9
F0.0
sg10
F-17500.0
sg11
F0.0
sg12
F0.0
sg13
F0.0
sg14
F12.0
sg15
F0.0
sg16
F0.0
sg17
F17500.0
sg18
F0.0
sg19
F0.0
sg20
F0.0
sg21
F0.0
sg22
F0.0
sg23
F0.0
sg24
F0.0
sg25
F0.0
sg26
F0.0
sg27
F0.0
ssS'GOLD JOSEPH'
p122
(dp123
g3
F0.0
sg4
F0.024628450106157114
sg5
F0.1419696474990603
sg6
F0.0
sg7
F0.0
sg8
F304805.0
sg9
F35.0
sg10
F0.0
sg11
F0.0
sg12
F0.2222222222222222
sg13
F0.0
sg14
F772.0
sg15
F0.0
sg16
F819288.0
sg17
F0.0
sg18
F750000.0
sg19
F877611.0
sg20
F0.2033164832533991
sg21
F8.0
sg22
F441096.0
sg23
F272880.0
sg24
F2146973.0
sg25
F0.34932903208377564
sg26
F436515.0
sg27
F0.0
ssS'BANNANTINE JAMES M'
p124
(dp125
g3
F0.0
sg4
F0.06890459363957598
sg5
F0.0
sg6
F56301.0
sg7
F0.0
sg8
F0.0
sg9
F39.0
sg10
F-5104.0
sg11
F0.0
sg12
F0.0
sg13
F-560222.0
sg14
F465.0
sg15
F0.0
sg16
F864523.0
sg17
F0.0
sg18
F0.0
sg19
F5243487.0
sg20
F4.416252181572304
sg21
F0.0
sg22
F1757552.0
sg23
F477.0
sg24
F916197.0
sg25
F0.0
sg26
F4046157.0
sg27
F0.0
ssS'DUNCAN JOHN H'
p126
(dp127
g3
F0.0
sg4
F0.024628450106157114
sg5
F0.0
sg6
F0.0
sg7
F0.0
sg8
F0.0
sg9
F35.0
sg10
F-25000.0
sg11
F0.0
sg12
F0.2222222222222222
sg13
F0.0
sg14
F772.0
sg15
F0.0
sg16
F0.0
sg17
F102492.0
sg18
F0.0
sg19
F371750.0
sg20
F4.797269395550509
sg21
F8.0
sg22
F0.0
sg23
F0.0
sg24
F77492.0
sg25
F0.0
sg26
F371750.0
sg27
F0.0
ssS'SHAPIRO RICHARD S'
p128
(dp129
g3
F0.0
sg4
F0.0048848108786058485
sg5
F0.0
sg6
F137767.0
sg7
F0.0
sg8
F0.0
sg9
F74.0
sg10
F0.0
sg11
F0.0
sg12
F0.053497942386831275
sg13
F0.0
sg14
F4527.0
sg15
F0.0
sg16
F705.0
sg17
F0.0
sg18
F650000.0
sg19
F987001.0
sg20
F0.5747606728016128
sg21
F65.0
sg22
F379164.0
sg23
F269076.0
sg24
F1057548.0
sg25
F0.6146293123338137
sg26
F607837.0
sg27
F0.0
ssS'SHERRIFF JOHN R'
p130
(dp131
g3
F0.0
sg4
F0.008785691873235017
sg5
F0.1278829022915596
sg6
F0.0
sg7
F0.0
sg8
F554422.0
sg9
F28.0
sg10
F0.0
sg11
F0.0
sg12
F0.25
sg13
F0.0
sg14
F2103.0
sg15
F0.0
sg16
F1852186.0
sg17
F0.0
sg18
F1500000.0
sg19
F3128982.0
sg20
F0.4233895559059535
sg21
F23.0
sg22
F1293424.0
sg23
F428780.0
sg24
F4335388.0
sg25
F0.34598979376240374
sg26
F1835558.0
sg27
F0.0
ssS'SHELBY REX'
p132
(dp133
g3
F0.0
sg4
F0.057777777777777775
sg5
F0.0
sg6
F22884.0
sg7
F1.0
sg8
F0.0
sg9
F13.0
sg10
F-4167.0
sg11
F0.0
sg12
F0.358974358974359
sg13
F0.0
sg14
F91.0
sg15
F0.0
sg16
F1573324.0
sg17
F0.0
sg18
F200000.0
sg19
F2493616.0
sg20
F0.8106233641152062
sg21
F14.0
sg22
F869220.0
sg23
F211844.0
sg24
F2003885.0
sg25
F0.09980612659908128
sg26
F1624396.0
sg27
F0.0
ssS'LEMAISTRE CHARLES'
p134
(dp135
g3
F0.0
sg4
F0.02763592670471613
sg5
F0.0
sg6
F0.0
sg7
F0.0
sg8
F0.0
sg9
F35.0
sg10
F-25000.0
sg11
F0.0
sg12
F0.07075127644055434
sg13
F0.0
sg14
F740.5
sg15
F0.0
sg16
F0.0
sg17
F112492.0
sg18
F0.0
sg19
F412878.0
sg20
F4.719037169112605
sg21
F8.0
sg22
F0.0
sg23
F0.0
sg24
F87492.0
sg25
F0.0
sg26
F412878.0
sg27
F0.0
ssS'DEFFNER JOSEPH M'
p136
(dp137
g3
F0.0
sg4
F0.16106442577030813
sg5
F0.2774577234581752
sg6
F41626.0
sg7
F0.0
sg8
F335349.0
sg9
F115.0
sg10
F0.0
sg11
F0.0
sg12
F0.05405405405405406
sg13
F0.0
sg14
F552.0
sg15
F0.0
sg16
F25553.0
sg17
F0.0
sg18
F600000.0
sg19
F159211.0
sg20
F0.014378036965239701
sg21
F4.0
sg22
F141833.0
sg23
F206121.0
sg24
F1208649.0
sg25
F0.49642203815996205
sg26
F17378.0
sg27
F0.0
ssS'KISHKILL JOSEPH G'
p138
(dp139
g3
F0.0
sg4
F0.02763592670471613
sg5
F0.0
sg6
F116335.0
sg7
F0.0
sg8
F0.0
sg9
F35.0
sg10
F-51042.0
sg11
F0.0
sg12
F0.07075127644055434
sg13
F0.0
sg14
F740.5
sg15
F0.0
sg16
F465357.0
sg17
F0.0
sg18
F0.0
sg19
F1034346.0
sg20
F0.0
sg21
F8.0
sg22
F1034346.0
sg23
F174246.0
sg24
F704896.0
sg25
F0.0
sg26
F0.0
sg27
F0.0
ssS'WHALLEY LAWRENCE G'
p140
(dp141
g3
F0.0
sg4
F0.03090214321315833
sg5
F0.17281308644181792
sg6
F57838.0
sg7
F0.0
sg8
F808346.0
sg9
F186.0
sg10
F0.0
sg11
F0.0
sg12
F0.04316546762589928
sg13
F0.0
sg14
F3920.0
sg15
F0.0
sg16
F301026.0
sg17
F0.0
sg18
F3000000.0
sg19
F6079137.0
sg20
F0.7018510022503118
sg21
F24.0
sg22
F2796177.0
sg23
F510364.0
sg24
F4677574.0
sg25
F0.6413581057189047
sg26
F3282960.0
sg27
F0.0
ssS'HAYSLETT RODERICK J'
p142
(dp143
g3
F0.0
sg4
F0.01321253303133258
sg5
F0.0
sg6
F0.0
sg7
F0.0
sg8
F0.0
sg9
F35.0
sg10
F0.0
sg11
F0.0
sg12
F0.03581526861451461
sg13
F0.0
sg14
F571.0
sg15
F0.0
sg16
F0.0
sg17
F0.0
sg18
F0.0
sg19
F346663.0
sg20
F0.0
sg21
F38.0
sg22
F346663.0
sg23
F0.0
sg24
F0.0
sg25
F0.0
sg26
F0.0
sg27
F0.0
ssS'MCCONNELL MICHAEL S'
p144
(dp145
g3
F0.0
sg4
F0.02763592670471613
sg5
F0.26383910640898006
sg6
F81364.0
sg7
F0.0
sg8
F554422.0
sg9
F92.0
sg10
F0.0
sg11
F0.0
sg12
F0.07075127644055434
sg13
F0.0
sg14
F2189.0
sg15
F0.0
sg16
F540.0
sg17
F0.0
sg18
F1100000.0
sg19
F3101279.0
sg20
F0.7723602383975361
sg21
F194.0
sg22
F1478269.0
sg23
F365038.0
sg24
F2101364.0
sg25
F0.5234695178940917
sg26
F1623010.0
sg27
F0.0
ssS'DELAINEY DAVID W'
p146
(dp147
g3
F0.0
sg4
F0.02133850630455868
sg5
F0.27274362418199405
sg6
F86174.0
sg7
F1.0
sg8
F1294981.0
sg9
F66.0
sg10
F0.0
sg11
F0.0
sg12
F0.198435972629521
sg13
F0.0
sg14
F2097.0
sg15
F0.0
sg16
F1661.0
sg17
F0.0
sg18
F3000000.0
sg19
F3614261.0
sg20
F0.4825448890991304
sg21
F609.0
sg22
F1323148.0
sg23
F365163.0
sg24
F4747979.0
sg25
F0.6318477819720769
sg26
F2291113.0
sg27
F0.0
ssS'SULLIVAN-SHAKLOVITZ COLLEEN'
p148
(dp149
g3
F181993.0
sg4
F0.024628450106157114
sg5
F0.5547792778549386
sg6
F0.0
sg7
F0.0
sg8
F554422.0
sg9
F35.0
sg10
F0.0
sg11
F7.485864840955421
sg12
F0.2222222222222222
sg13
F0.0
sg14
F772.0
sg15
F0.5494716829768178
sg16
F162.0
sg17
F0.0
sg18
F100000.0
sg19
F1362375.0
sg20
F1.3632529348900693
sg21
F8.0
sg22
F0.0
sg23
F162779.0
sg24
F999356.0
sg25
F0.10006444150032621
sg26
F1362375.0
sg27
F0.0
ssS'WROBEL BRUCE'
p150
(dp151
g3
F0.0
sg4
F0.024628450106157114
sg5
F0.0
sg6
F0.0
sg7
F0.0
sg8
F0.0
sg9
F35.0
sg10
F0.0
sg11
F0.0
sg12
F0.2222222222222222
sg13
F0.0
sg14
F772.0
sg15
F0.0
sg16
F0.0
sg17
F0.0
sg18
F0.0
sg19
F139130.0
sg20
F0.0
sg21
F8.0
sg22
F0.0
sg23
F0.0
sg24
F0.0
sg25
F0.0
sg26
F139130.0
sg27
F0.0
ssS'LINDHOLM TOD A'
p152
(dp153
g3
F204075.0
sg4
F0.02763592670471613
sg5
F0.19979700624165847
sg6
F57727.0
sg7
F0.0
sg8
F175000.0
sg9
F35.0
sg10
F0.0
sg11
F12.492274898934216
sg12
F0.07075127644055434
sg13
F0.0
sg14
F740.5
sg15
F0.9800318510351587
sg16
F2630.0
sg17
F0.0
sg18
F200000.0
sg19
F3064208.0
sg20
F2.910598260738518
sg21
F8.0
sg22
F514847.0
sg23
F236457.0
sg24
F875889.0
sg25
F0.22833943570475254
sg26
F2549361.0
sg27
F2.5228322920494914
ssS'MEYER JEROME J'
p154
(dp155
g3
F0.0
sg4
F0.024628450106157114
sg5
F0.0
sg6
F2151.0
sg7
F0.0
sg8
F0.0
sg9
F35.0
sg10
F-38346.0
sg11
F0.0
sg12
F0.2222222222222222
sg13
F0.0
sg14
F772.0
sg15
F0.0
sg16
F0.0
sg17
F38346.0
sg18
F0.0
sg19
F0.0
sg20
F0.0
sg21
F8.0
sg22
F0.0
sg23
F0.0
sg24
F2151.0
sg25
F0.0
sg26
F0.0
sg27
F0.0
ssS'LAY KENNETH L'
p156
(dp157
g3
F202911.0
sg4
F0.028785396676807865
sg5
F0.03476252603170035
sg6
F99832.0
sg7
F1.0
sg8
F3600000.0
sg9
F123.0
sg10
F-300000.0
sg11
F169.2780775808113
sg12
F0.4444444444444444
sg13
F0.0
sg14
F2411.0
sg15
F34.49788330844557
sg16
F10359729.0
sg17
F0.0
sg18
F7000000.0
sg19
F49110078.0
sg20
F0.3316768313741222
sg21
F16.0
sg22
F14761694.0
sg23
F1072321.0
sg24
F103559793.0
sg25
F0.06759380061719514
sg26
F34348384.0
sg27
F72.74959957814016
ssS'BUTTS ROBERT H'
p158
(dp159
g3
F0.0
sg4
F0.02763592670471613
sg5
F0.13762384179706855
sg6
F9410.0
sg7
F0.0
sg8
F175000.0
sg9
F35.0
sg10
F-75000.0
sg11
F0.0
sg12
F0.07075127644055434
sg13
F0.0
sg14
F740.5
sg15
F0.0
sg16
F150656.0
sg17
F0.0
sg18
F750000.0
sg19
F417619.0
sg20
F0.0
sg21
F8.0
sg22
F417619.0
sg23
F261516.0
sg24
F1271582.0
sg25
F0.5898164648445794
sg26
F0.0
sg27
F0.0
ssS'OLSON CINDY K'
p160
(dp161
g3
F77716.0
sg4
F0.016891891891891893
sg5
F0.07566832153285859
sg6
F63791.0
sg7
F0.0
sg8
F100000.0
sg9
F20.0
sg10
F0.0
sg11
F21.064311081373205
sg12
F0.28846153846153844
sg13
F0.0
sg14
F856.0
sg15
F9.65052241494673
sg16
F972.0
sg17
F0.0
sg18
F750000.0
sg19
F2606763.0
sg20
F1.2387161507222162
sg21
F15.0
sg22
F969729.0
sg23
F329078.0
sg24
F1321557.0
sg25
F0.5675124114964394
sg26
F1637034.0
sg27
F12.477855267898502
ssS'MCDONALD REBECCA'
p162
(dp163
g3
F0.0
sg4
F0.06040268456375839
sg5
F0.0
sg6
F0.0
sg7
F0.0
sg8
F0.0
sg9
F54.0
sg10
F0.0
sg11
F0.0
sg12
F0.07692307692307693
sg13
F0.0
sg14
F720.0
sg15
F0.0
sg16
F0.0
sg17
F0.0
sg18
F0.0
sg19
F1691366.0
sg20
F0.0
sg21
F1.0
sg22
F934065.0
sg23
F0.0
sg24
F0.0
sg25
F0.0
sg26
F757301.0
sg27
F0.0
ssS'CUMBERLAND MICHAEL S'
p164
(dp165
g3
F0.0
sg4
F0.024628450106157114
sg5
F0.3403650693849665
sg6
F22344.0
sg7
F0.0
sg8
F275000.0
sg9
F35.0
sg10
F0.0
sg11
F0.0
sg12
F0.2222222222222222
sg13
F0.0
sg14
F772.0
sg15
F0.0
sg16
F713.0
sg17
F0.0
sg18
F325000.0
sg19
F207940.0
sg20
F0.0
sg21
F8.0
sg22
F207940.0
sg23
F184899.0
sg24
F807956.0
sg25
F0.4022496274549604
sg26
F0.0
sg27
F0.0
ssS'GAHN ROBERT S'
p166
(dp167
g3
F73122.0
sg4
F0.02763592670471613
sg5
F0.0
sg6
F50080.0
sg7
F0.0
sg8
F0.0
sg9
F35.0
sg10
F-1042.0
sg11
F1.1383304614206395
sg12
F0.07075127644055434
sg13
F0.0
sg14
F740.5
sg15
F6.972867262930445
sg16
F76547.0
sg17
F0.0
sg18
F509870.0
sg19
F318607.0
sg20
F0.09242547899420932
sg21
F8.0
sg22
F235370.0
sg23
F192008.0
sg24
F900585.0
sg25
F0.5661542219779365
sg26
F83237.0
sg27
F3.218867098821148
ssS'BADUM JAMES P'
p168
(dp169
g3
F178980.0
sg4
F0.024628450106157114
sg5
F0.0
sg6
F3486.0
sg7
F0.0
sg8
F0.0
sg9
F35.0
sg10
F0.0
sg11
F1.440479383171304
sg12
F0.2222222222222222
sg13
F0.0
sg14
F772.0
sg15
F0.0
sg16
F0.0
sg17
F0.0
sg18
F0.0
sg19
F257817.0
sg20
F1.412959126631811
sg21
F8.0
sg22
F0.0
sg23
F0.0
sg24
F182466.0
sg25
F0.0
sg26
F257817.0
sg27
F0.0
ssS'HERMANN ROBERT J'
p170
(dp171
g3
F0.0
sg4
F0.024628450106157114
sg5
F0.11561041141121005
sg6
F48357.0
sg7
F0.0
sg8
F150000.0
sg9
F35.0
sg10
F-280000.0
sg11
F0.0
sg12
F0.2222222222222222
sg13
F0.0
sg14
F772.0
sg15
F0.0
sg16
F416441.0
sg17
F0.0
sg18
F700000.0
sg19
F668132.0
sg20
F0.14451301426401256
sg21
F8.0
sg22
F480632.0
sg23
F262663.0
sg24
F1297461.0
sg25
F0.5395152532523135
sg26
F187500.0
sg27
F0.0
ssS'SCRIMSHAW MATTHEW'
p172
(dp173
g3
F0.0
sg4
F0.024628450106157114
sg5
F0.0
sg6
F0.0
sg7
F0.0
sg8
F0.0
sg9
F35.0
sg10
F0.0
sg11
F0.0
sg12
F0.2222222222222222
sg13
F0.0
sg14
F772.0
sg15
F0.0
sg16
F0.0
sg17
F0.0
sg18
F0.0
sg19
F759557.0
sg20
F0.0
sg21
F8.0
sg22
F0.0
sg23
F0.0
sg24
F0.0
sg25
F0.0
sg26
F759557.0
sg27
F0.0
ssS'GATHMANN WILLIAM D'
p174
(dp175
g3
F0.0
sg4
F0.024628450106157114
sg5
F0.0
sg6
F0.0
sg7
F0.0
sg8
F0.0
sg9
F35.0
sg10
F0.0
sg11
F0.0
sg12
F0.2222222222222222
sg13
F-72419.0
sg14
F772.0
sg15
F0.0
sg16
F0.0
sg17
F0.0
sg18
F0.0
sg19
F1945360.0
sg20
F0.0
sg21
F8.0
sg22
F264013.0
sg23
F0.0
sg24
F0.0
sg25
F0.0
sg26
F1753766.0
sg27
F0.0
ssS'HAEDICKE MARK E'
p176
(dp177
g3
F2157527.0
sg4
F0.04489897730107259
sg5
F0.25481457296003046
sg6
F76169.0
sg7
F0.0
sg8
F983346.0
sg9
F180.0
sg10
F-934484.0
sg11
F0.28215174132235654
sg12
F0.03142709943328181
sg13
F-329825.0
sg14
F1847.0
sg15
F0.5330176632783739
sg16
F52382.0
sg17
F0.0
sg18
F1150000.0
sg19
F803094.0
sg20
F0.15774546425105562
sg21
F61.0
sg22
F524169.0
sg23
F374125.0
sg24
F3859065.0
sg25
F0.29799964499172726
sg26
F608750.0
sg27
F0.24294898742866253
ssS'BOWEN JR RAYMOND M'
p178
(dp179
g3
F0.0
sg4
F0.07534983853606028
sg5
F0.36495992454269177
sg6
F65907.0
sg7
F1.0
sg8
F974293.0
sg9
F140.0
sg10
F-833.0
sg11
F0.0
sg12
F0.5555555555555556
sg13
F0.0
sg14
F1593.0
sg15
F0.0
sg16
F1621.0
sg17
F0.0
sg18
F1350000.0
sg19
F252055.0
sg20
F0.0
sg21
F15.0
sg22
F252055.0
sg23
F278601.0
sg24
F2669589.0
sg25
F0.5056958205926081
sg26
F0.0
sg27
F0.0
ssS'GILLIS JOHN'
p180
(dp181
g3
F0.0
sg4
F0.02763592670471613
sg5
F0.0
sg6
F0.0
sg7
F0.0
sg8
F0.0
sg9
F35.0
sg10
F0.0
sg11
F0.0
sg12
F0.07075127644055434
sg13
F0.0
sg14
F740.5
sg15
F0.0
sg16
F0.0
sg17
F0.0
sg18
F0.0
sg19
F85641.0
sg20
F0.0
sg21
F8.0
sg22
F75838.0
sg23
F0.0
sg24
F0.0
sg25
F0.0
sg26
F9803.0
sg27
F0.0
ssS'FITZGERALD JAY L'
p182
(dp183
g3
F0.0
sg4
F0.0010683760683760685
sg5
F0.3932665986739296
sg6
F23870.0
sg7
F0.0
sg8
F556416.0
sg9
F1.0
sg10
F0.0
sg11
F0.0
sg12
F0.5
sg13
F0.0
sg14
F723.0
sg15
F0.0
sg16
F285414.0
sg17
F0.0
sg18
F350000.0
sg19
F1621236.0
sg20
F0.4696312065459619
sg21
F8.0
sg22
F956775.0
sg23
F199157.0
sg24
F1414857.0
sg25
F0.24737482303865338
sg26
F664461.0
sg27
F0.0
ssS'MORAN MICHAEL P'
p184
(dp185
g3
F0.0
sg4
F0.0
sg5
F0.0
sg6
F0.0
sg7
F0.0
sg8
F0.0
sg9
F0.0
sg10
F0.0
sg11
F0.0
sg12
F0.0
sg13
F0.0
sg14
F127.0
sg15
F0.0
sg16
F0.0
sg17
F0.0
sg18
F0.0
sg19
F221141.0
sg20
F0.0
sg21
F0.0
sg22
F161602.0
sg23
F0.0
sg24
F0.0
sg25
F0.0
sg26
F59539.0
sg27
F0.0
ssS'REDMOND BRIAN L'
p186
(dp187
g3
F0.0
sg4
F0.12208258527827648
sg5
F0.0
sg6
F14689.0
sg7
F0.0
sg8
F0.0
sg9
F204.0
sg10
F0.0
sg11
F0.0
sg12
F0.22171945701357465
sg13
F0.0
sg14
F1063.0
sg15
F0.0
sg16
F0.0
sg17
F0.0
sg18
F0.0
sg19
F7890324.0
sg20
F67.3281299034332
sg21
F49.0
sg22
F381285.0
sg23
F96840.0
sg24
F111529.0
sg25
F0.0
sg26
F7509039.0
sg27
F0.0
ssS'BAZELIDES PHILIP J'
p188
(dp189
g3
F684694.0
sg4
F0.02763592670471613
sg5
F0.10899439158458663
sg6
F0.0
sg7
F0.0
sg8
F93750.0
sg9
F35.0
sg10
F0.0
sg11
F2.3362859905300764
sg12
F0.07075127644055434
sg13
F0.0
sg14
F740.5
sg15
F0.0
sg16
F874.0
sg17
F0.0
sg18
F0.0
sg19
F1599641.0
sg20
F1.8597535738534372
sg21
F8.0
sg22
F0.0
sg23
F80818.0
sg24
F860136.0
sg25
F0.0
sg26
F1599641.0
sg27
F0.0
ssS'BELDEN TIMOTHY N'
p190
(dp191
g3
F2144013.0
sg4
F0.028532098610937303
sg5
F0.0
sg6
F17355.0
sg7
F1.0
sg8
F0.0
sg9
F228.0
sg10
F-2334434.0
sg11
F0.44455700595099
sg12
F0.2231404958677686
sg13
F0.0
sg14
F5521.0
sg15
F2.4486787160339047
sg16
F210698.0
sg17
F0.0
sg18
F5249999.0
sg19
F1110705.0
sg20
F0.1732461106981022
sg21
F108.0
sg22
F157569.0
sg23
F213999.0
sg24
F5501630.0
sg25
F0.9542624640333864
sg26
F953136.0
sg27
F0.07349255811415323
ssS'DURAN WILLIAM D'
p192
(dp193
g3
F0.0
sg4
F0.1172566371681416
sg5
F0.5279881218939044
sg6
F25785.0
sg7
F0.0
sg8
F1105218.0
sg9
F106.0
sg10
F0.0
sg11
F0.0
sg12
F0.25
sg13
F0.0
sg14
F599.0
sg15
F0.0
sg16
F1568.0
sg17
F0.0
sg18
F750000.0
sg19
F1640910.0
sg20
F0.6935912974146106
sg21
F3.0
sg22
F189041.0
sg23
F210692.0
sg24
F2093263.0
sg25
F0.3582922929416896
sg26
F1451869.0
sg27
F0.0
ssS'THORN TERENCE H'
p194
(dp195
g3
F16586.0
sg4
F0.0
sg5
F0.21942985540669677
sg6
F46145.0
sg7
F0.0
sg8
F200000.0
sg9
F0.0
sg10
F0.0
sg11
F268.4478475822983
sg12
F0.0
sg13
F0.0
sg14
F73.0
sg15
F0.0
sg16
F426629.0
sg17
F0.0
sg18
F0.0
sg19
F4817796.0
sg20
F4.885030824408938
sg21
F0.0
sg22
F365320.0
sg23
F222093.0
sg24
F911453.0
sg25
F0.0
sg26
F4452476.0
sg27
F22.025804895695163
ssS'FASTOW ANDREW S'
p196
(dp197
g3
F0.0
sg4
F0.02763592670471613
sg5
F0.7161697846154608
sg6
F55921.0
sg7
F1.0
sg8
F1736055.0
sg9
F35.0
sg10
F-1386055.0
sg11
F0.0
sg12
F0.07075127644055434
sg13
F0.0
sg14
F740.5
sg15
F0.0
sg16
F277464.0
sg17
F0.0
sg18
F1300000.0
sg19
F1794412.0
sg20
F0.0
sg21
F8.0
sg22
F1794412.0
sg23
F440698.0
sg24
F2424083.0
sg25
F0.5362852674599013
sg26
F0.0
sg27
F0.0
ssS'FOY JOE'
p198
(dp199
g3
F181755.0
sg4
F0.0
sg5
F0.0
sg6
F0.0
sg7
F0.0
sg8
F0.0
sg9
F0.0
sg10
F0.0
sg11
F1.8895436164067014
sg12
F0.0
sg13
F0.0
sg14
F2.0
sg15
F0.0
sg16
F0.0
sg17
F0.0
sg18
F0.0
sg19
F343434.0
sg20
F1.8895436164067014
sg21
F0.0
sg22
F0.0
sg23
F0.0
sg24
F181755.0
sg25
F0.0
sg26
F343434.0
sg27
F0.0
ssS'CALGER CHRISTOPHER F'
p200
(dp201
g3
F0.0
sg4
F0.07659738260200154
sg5
F0.22894204039902472
sg6
F35818.0
sg7
F1.0
sg8
F375304.0
sg9
F199.0
sg10
F-262500.0
sg11
F0.0
sg12
F0.1736111111111111
sg13
F0.0
sg14
F2188.0
sg15
F0.0
sg16
F486.0
sg17
F0.0
sg18
F1250000.0
sg19
F126027.0
sg20
F0.0
sg21
F25.0
sg22
F126027.0
sg23
F240189.0
sg24
F1639297.0
sg25
F0.7625219835087845
sg26
F0.0
sg27
F0.0
ssS'RICE KENNETH D'
p202
(dp203
g3
F0.0
sg4
F0.04640883977900553
sg5
F3.2016849816849815
sg6
F46950.0
sg7
F1.0
sg8
F1617011.0
sg9
F42.0
sg10
F-3504386.0
sg11
F0.0
sg12
F0.2222222222222222
sg13
F0.0
sg14
F864.0
sg15
F0.0
sg16
F174839.0
sg17
F0.0
sg18
F1750000.0
sg19
F22542539.0
sg20
F39.19250569250569
sg21
F4.0
sg22
F2748364.0
sg23
F420636.0
sg24
F505050.0
sg25
F3.465003465003465
sg26
F19794175.0
sg27
F0.0
ssS'KAMINSKI WINCENTY J'
p204
(dp205
g3
F0.0
sg4
F0.028901734104046242
sg5
F0.29762582798823356
sg6
F83585.0
sg7
F0.0
sg8
F323466.0
sg9
F35.0
sg10
F0.0
sg11
F0.0
sg12
F0.1951219512195122
sg13
F0.0
sg14
F740.5
sg15
F0.0
sg16
F4669.0
sg17
F0.0
sg18
F400000.0
sg19
F976037.0
sg20
F0.7821067130649849
sg21
F8.0
sg22
F126027.0
sg23
F275101.0
sg24
F1086821.0
sg25
F0.368045887961311
sg26
F850010.0
sg27
F0.0
ssS'LOCKHART EUGENE E'
p206
(dp207
g3
F0.0
sg4
F0.024628450106157114
sg5
F0.0
sg6
F0.0
sg7
F0.0
sg8
F0.0
sg9
F35.0
sg10
F0.0
sg11
F0.0
sg12
F0.2222222222222222
sg13
F0.0
sg14
F772.0
sg15
F0.0
sg16
F0.0
sg17
F0.0
sg18
F0.0
sg19
F0.0
sg20
F0.0
sg21
F8.0
sg22
F0.0
sg23
F0.0
sg24
F0.0
sg25
F0.0
sg26
F0.0
sg27
F0.0
ssS'COX DAVID'
p208
(dp209
g3
F0.0
sg4
F0.0
sg5
F0.0
sg6
F27861.0
sg7
F0.0
sg8
F0.0
sg9
F0.0
sg10
F-41250.0
sg11
F0.0
sg12
F0.12121212121212122
sg13
F0.0
sg14
F71.0
sg15
F0.0
sg16
F494.0
sg17
F0.0
sg18
F800000.0
sg19
F495633.0
sg20
F0.10672938723961384
sg21
F4.0
sg22
F378082.0
sg23
F314288.0
sg24
F1101393.0
sg25
F0.7263529003725282
sg26
F117551.0
sg27
F0.0
ssS'OVERDYKE JR JERE C'
p210
(dp211
g3
F0.0
sg4
F0.02763592670471613
sg5
F0.5438073238399116
sg6
F18834.0
sg7
F0.0
sg8
F135836.0
sg9
F35.0
sg10
F0.0
sg11
F0.0
sg12
F0.07075127644055434
sg13
F0.0
sg14
F740.5
sg15
F0.0
sg16
F176.0
sg17
F0.0
sg18
F0.0
sg19
F7307594.0
sg20
F21.08427580298414
sg21
F8.0
sg22
F2041016.0
sg23
F94941.0
sg24
F249787.0
sg25
F0.0
sg26
F5266578.0
sg27
F0.0
ssS'PEREIRA PAULO V. FERRAZ'
p212
(dp213
g3
F0.0
sg4
F0.02763592670471613
sg5
F0.0
sg6
F27942.0
sg7
F0.0
sg8
F0.0
sg9
F35.0
sg10
F-101250.0
sg11
F0.0
sg12
F0.07075127644055434
sg13
F0.0
sg14
F740.5
sg15
F0.0
sg16
F0.0
sg17
F101250.0
sg18
F0.0
sg19
F0.0
sg20
F0.0
sg21
F8.0
sg22
F0.0
sg23
F0.0
sg24
F27942.0
sg25
F0.0
sg26
F0.0
sg27
F0.0
ssS'STABLER FRANK'
p214
(dp215
g3
F0.0
sg4
F0.02763592670471613
sg5
F0.0
sg6
F16514.0
sg7
F0.0
sg8
F0.0
sg9
F35.0
sg10
F0.0
sg11
F0.0
sg12
F0.07075127644055434
sg13
F0.0
sg14
F740.5
sg15
F0.0
sg16
F356071.0
sg17
F0.0
sg18
F500000.0
sg19
F511734.0
sg20
F0.0
sg21
F8.0
sg22
F511734.0
sg23
F239502.0
sg24
F1112087.0
sg25
F0.44960511183027946
sg26
F0.0
sg27
F0.0
ssS'SKILLING JEFFREY K'
p216
(dp217
g3
F0.0
sg4
F0.0242624758753791
sg5
F0.22112896471564888
sg6
F29336.0
sg7
F1.0
sg8
F1920000.0
sg9
F88.0
sg10
F0.0
sg11
F0.0
sg12
F0.2777777777777778
sg13
F0.0
sg14
F2042.0
sg15
F0.0
sg16
F22122.0
sg17
F0.0
sg18
F5600000.0
sg19
F26093672.0
sg20
F2.217048213945959
sg21
F30.0
sg22
F6843672.0
sg23
F1111258.0
sg24
F8682716.0
sg25
F0.6449594804206426
sg26
F19250000.0
sg27
F0.0
ssS'BLAKE JR. NORMAN P'
p218
(dp219
g3
F0.0
sg4
F0.02763592670471613
sg5
F0.0
sg6
F1279.0
sg7
F0.0
sg8
F0.0
sg9
F35.0
sg10
F-113784.0
sg11
F0.0
sg12
F0.07075127644055434
sg13
F0.0
sg14
F740.5
sg15
F0.0
sg16
F0.0
sg17
F113784.0
sg18
F0.0
sg19
F0.0
sg20
F0.0
sg21
F8.0
sg22
F0.0
sg23
F0.0
sg24
F1279.0
sg25
F0.0
sg26
F0.0
sg27
F0.0
ssS'SHERRICK JEFFREY B'
p220
(dp221
g3
F0.0
sg4
F0.0636215334420881
sg5
F0.0
sg6
F0.0
sg7
F0.0
sg8
F0.0
sg9
F39.0
sg10
F0.0
sg11
F0.0
sg12
F0.72
sg13
F0.0
sg14
F583.0
sg15
F0.0
sg16
F0.0
sg17
F0.0
sg18
F0.0
sg19
F1832468.0
sg20
F0.0
sg21
F18.0
sg22
F405999.0
sg23
F0.0
sg24
F0.0
sg25
F0.0
sg26
F1426469.0
sg27
F0.0
ssS'CHAN RONNIE'
p222
(dp223
g3
F0.0
sg4
F0.024628450106157114
sg5
F0.0
sg6
F0.0
sg7
F0.0
sg8
F0.0
sg9
F35.0
sg10
F-98784.0
sg11
F0.0
sg12
F0.2222222222222222
sg13
F-32460.0
sg14
F772.0
sg15
F0.0
sg16
F0.0
sg17
F98784.0
sg18
F0.0
sg19
F0.0
sg20
F0.0
sg21
F8.0
sg22
F32460.0
sg23
F0.0
sg24
F0.0
sg25
F0.0
sg26
F0.0
sg27
F0.0
ssS'GRAY RODNEY'
p224
(dp225
g3
F93585.0
sg4
F0.02763592670471613
sg5
F0.3188614216270239
sg6
F0.0
sg7
F0.0
sg8
F365625.0
sg9
F35.0
sg10
F0.0
sg11
F0.0
sg12
F0.07075127644055434
sg13
F0.0
sg14
F740.5
sg15
F0.0
sg16
F680833.0
sg17
F0.0
sg18
F0.0
sg19
F0.0
sg20
F0.0
sg21
F8.0
sg22
F0.0
sg23
F6615.0
sg24
F1146658.0
sg25
F0.0
sg26
F0.0
sg27
F0.0
ssS'PICKERING MARK R'
p226
(dp227
g3
F0.0
sg4
F0.0077951002227171495
sg5
F0.0
sg6
F31653.0
sg7
F0.0
sg8
F0.0
sg9
F7.0
sg10
F0.0
sg11
F0.0
sg12
F0.0
sg13
F0.0
sg14
F728.0
sg15
F0.0
sg16
F0.0
sg17
F0.0
sg18
F300000.0
sg19
F28798.0
sg20
F0.020767439009439746
sg21
F0.0
sg22
F0.0
sg23
F655037.0
sg24
F1386690.0
sg25
F0.21634251346732147
sg26
F28798.0
sg27
F0.0
ssS'NOLES JAMES L'
p228
(dp229
g3
F774401.0
sg4
F0.02763592670471613
sg5
F0.0
sg6
F0.0
sg7
F0.0
sg8
F0.0
sg9
F35.0
sg10
F0.0
sg11
F0.0
sg12
F0.07075127644055434
sg13
F-94556.0
sg14
F740.5
sg15
F0.0
sg16
F0.0
sg17
F0.0
sg18
F0.0
sg19
F368705.0
sg20
F0.0
sg21
F8.0
sg22
F463261.0
sg23
F0.0
sg24
F774401.0
sg25
F0.0
sg26
F0.0
sg27
F0.5982184940360356
ssS'KEAN STEVEN J'
p230
(dp231
g3
F0.0
sg4
F0.010976948408342482
sg5
F0.1716716584970032
sg6
F41953.0
sg7
F0.0
sg8
F300000.0
sg9
F140.0
sg10
F0.0
sg11
F0.0
sg12
F0.05725699067909454
sg13
F0.0
sg14
F3639.0
sg15
F0.0
sg16
F1231.0
sg17
F0.0
sg18
F1000000.0
sg19
F6153642.0
sg20
F1.157094445735161
sg21
F387.0
sg22
F4131594.0
sg23
F404338.0
sg24
F1747522.0
sg25
F0.5722388616566773
sg26
F2022048.0
sg27
F0.0
ssS'HUGHES JAMES A'
p232
(dp233
g3
F0.0
sg4
F0.048678720445062586
sg5
F0.0
sg6
F0.0
sg7
F0.0
sg8
F0.0
sg9
F35.0
sg10
F0.0
sg11
F0.0
sg12
F0.14705882352941177
sg13
F0.0
sg14
F589.0
sg15
F0.0
sg16
F0.0
sg17
F0.0
sg18
F0.0
sg19
F1118394.0
sg20
F0.0
sg21
F5.0
sg22
F363428.0
sg23
F0.0
sg24
F0.0
sg25
F0.0
sg26
F754966.0
sg27
F0.0
ssS'FOWLER PEGGY'
p234
(dp235
g3
F0.0
sg4
F0.0
sg5
F0.0
sg6
F0.0
sg7
F0.0
sg8
F0.0
sg9
F0.0
sg10
F0.0
sg11
F0.0
sg12
F0.0
sg13
F0.0
sg14
F10.0
sg15
F0.0
sg16
F0.0
sg17
F0.0
sg18
F0.0
sg19
F1884748.0
sg20
F0.0
sg21
F0.0
sg22
F560170.0
sg23
F0.0
sg24
F0.0
sg25
F0.0
sg26
F1324578.0
sg27
F0.0
ssS'WASAFF GEORGE'
p236
(dp237
g3
F831299.0
sg4
F0.055
sg5
F0.1933497358359234
sg6
F0.0
sg7
F0.0
sg8
F200000.0
sg9
F22.0
sg10
F-583325.0
sg11
F2.006811027079306
sg12
F0.23333333333333334
sg13
F0.0
sg14
F337.0
sg15
F0.39095439787609515
sg16
F1425.0
sg17
F0.0
sg18
F325000.0
sg19
F2056427.0
sg20
F1.6127881515281879
sg21
F7.0
sg22
F388167.0
sg23
F259996.0
sg24
F1034395.0
sg25
F0.3141933207333755
sg26
F1668260.0
sg27
F0.466940294647293
ssS'WHITE JR THOMAS E'
p238
(dp239
g3
F0.0
sg4
F0.02763592670471613
sg5
F0.0
sg6
F81353.0
sg7
F0.0
sg8
F0.0
sg9
F35.0
sg10
F0.0
sg11
F0.0
sg12
F0.07075127644055434
sg13
F0.0
sg14
F740.5
sg15
F0.0
sg16
F1085463.0
sg17
F0.0
sg18
F450000.0
sg19
F15144123.0
sg20
F0.6705316851732279
sg21
F8.0
sg22
F13847074.0
sg23
F317543.0
sg24
F1934359.0
sg25
F0.23263520370313887
sg26
F1297049.0
sg27
F0.0
ssS'CHRISTODOULOU DIOMEDES'
p240
(dp241
g3
F0.0
sg4
F0.024628450106157114
sg5
F0.0
sg6
F0.0
sg7
F0.0
sg8
F0.0
sg9
F35.0
sg10
F0.0
sg11
F0.0
sg12
F0.2222222222222222
sg13
F0.0
sg14
F772.0
sg15
F0.0
sg16
F0.0
sg17
F0.0
sg18
F0.0
sg19
F6077885.0
sg20
F0.0
sg21
F8.0
sg22
F950730.0
sg23
F0.0
sg24
F0.0
sg25
F0.0
sg26
F5127155.0
sg27
F0.0
ssS'ALLEN PHILLIP K'
p242
(dp243
g3
F2869717.0
sg4
F0.016195727084769126
sg5
F0.06796943744617502
sg6
F13868.0
sg7
F0.0
sg8
F304805.0
sg9
F47.0
sg10
F-3081055.0
sg11
F0.6026869548460702
sg12
F0.029612756264236904
sg13
F-126027.0
sg14
F1407.0
sg15
F1.4548472898198672
sg16
F152.0
sg17
F0.0
sg18
F4175000.0
sg19
F1729541.0
sg20
F0.38567585443183344
sg21
F65.0
sg22
F126027.0
sg23
F201955.0
sg24
F4484442.0
sg25
F0.9309965431596617
sg26
F1729541.0
sg27
F0.04391617710039004
ssS'SHARP VICTORIA T'
p244
(dp245
g3
F187469.0
sg4
F0.007653061224489796
sg5
F0.2677799266862077
sg6
F116337.0
sg7
F0.0
sg8
F422158.0
sg9
F24.0
sg10
F0.0
sg11
F1.4993038849089717
sg12
F0.04411764705882353
sg13
F0.0
sg14
F2477.0
sg15
F3.200529154153487
sg16
F2401.0
sg17
F0.0
sg18
F600000.0
sg19
F494136.0
sg20
F0.17828800433362024
sg21
F6.0
sg22
F213063.0
sg23
F248146.0
sg24
F1576511.0
sg25
F0.38058725882661143
sg26
F281073.0
sg27
F1.136523905285674
ssS'JAEDICKE ROBERT'
p246
(dp247
g3
F0.0
sg4
F0.02763592670471613
sg5
F0.0
sg6
F0.0
sg7
F0.0
sg8
F0.0
sg9
F35.0
sg10
F-25000.0
sg11
F0.0
sg12
F0.07075127644055434
sg13
F-44093.0
sg14
F740.5
sg15
F0.0
sg16
F0.0
sg17
F108750.0
sg18
F0.0
sg19
F431750.0
sg20
F5.155223880597015
sg21
F8.0
sg22
F44093.0
sg23
F0.0
sg24
F83750.0
sg25
F0.0
sg26
F431750.0
sg27
F0.0
ssS'WINOKUR JR. HERBERT S'
p248
(dp249
g3
F0.0
sg4
F0.02763592670471613
sg5
F0.0
sg6
F1413.0
sg7
F0.0
sg8
F0.0
sg9
F35.0
sg10
F-25000.0
sg11
F0.0
sg12
F0.07075127644055434
sg13
F0.0
sg14
F740.5
sg15
F0.0
sg16
F0.0
sg17
F108579.0
sg18
F0.0
sg19
F0.0
sg20
F0.0
sg21
F8.0
sg22
F0.0
sg23
F0.0
sg24
F84992.0
sg25
F0.0
sg26
F0.0
sg27
F0.0
ssS'BROWN MICHAEL'
p250
(dp251
g3
F0.0
sg4
F0.008748317631224764
sg5
F0.0
sg6
F49288.0
sg7
F0.0
sg8
F0.0
sg9
F13.0
sg10
F0.0
sg11
F0.0
sg12
F0.024390243902439025
sg13
F0.0
sg14
F761.0
sg15
F0.0
sg16
F0.0
sg17
F0.0
sg18
F0.0
sg19
F0.0
sg20
F0.0
sg21
F1.0
sg22
F0.0
sg23
F0.0
sg24
F49288.0
sg25
F0.0
sg26
F0.0
sg27
F0.0
ssS'MCCLELLAN GEORGE'
p252
(dp253
g3
F0.0
sg4
F0.02981651376146789
sg5
F0.0
sg6
F228763.0
sg7
F0.0
sg8
F0.0
sg9
F52.0
sg10
F-125000.0
sg11
F0.0
sg12
F0.0
sg13
F0.0
sg14
F1469.0
sg15
F0.0
sg16
F51587.0
sg17
F0.0
sg18
F900000.0
sg19
F947861.0
sg20
F0.38427298915726327
sg21
F0.0
sg22
F441096.0
sg23
F263413.0
sg24
F1318763.0
sg25
F0.6824577274309334
sg26
F506765.0
sg27
F0.0
ssS'CARTER REBECCA C'
p254
(dp255
g3
F0.0
sg4
F0.09294871794871795
sg5
F0.1570493155790827
sg6
F0.0
sg7
F0.0
sg8
F75000.0
sg9
F29.0
sg10
F-159792.0
sg11
F0.0
sg12
F0.4666666666666667
sg13
F-307301.0
sg14
F196.0
sg15
F0.0
sg16
F540.0
sg17
F0.0
sg18
F300000.0
sg19
F0.0
sg20
F0.0
sg21
F7.0
sg22
F307301.0
sg23
F261809.0
sg24
F477557.0
sg25
F0.6281972623163308
sg26
F0.0
sg27
F0.0
ssS'REYNOLDS LAWRENCE'
p256
(dp257
g3
F51365.0
sg4
F0.02763592670471613
sg5
F0.39609607706445277
sg6
F8409.0
sg7
F0.0
sg8
F156250.0
sg9
F35.0
sg10
F-200000.0
sg11
F81.00208313053636
sg12
F0.07075127644055434
sg13
F-140264.0
sg14
F740.5
sg15
F1.9468509685583568
sg16
F202052.0
sg17
F0.0
sg18
F100000.0
sg19
F4221891.0
sg20
F10.547365485772229
sg21
F8.0
sg22
F201483.0
sg23
F76399.0
sg24
F394475.0
sg25
F0.2535014893212498
sg26
F4160672.0
sg27
F3.9225737369804343
ssS'DIMICHELE RICHARD G'
p258
(dp259
g3
F0.0
sg4
F0.024628450106157114
sg5
F0.2934196341365057
sg6
F35812.0
sg7
F0.0
sg8
F694862.0
sg9
F35.0
sg10
F0.0
sg11
F0.0
sg12
F0.2222222222222222
sg13
F0.0
sg14
F772.0
sg15
F0.0
sg16
F374689.0
sg17
F0.0
sg18
F1000000.0
sg19
F8317782.0
sg20
F3.459135418307363
sg21
F8.0
sg22
F126027.0
sg23
F262788.0
sg24
F2368151.0
sg25
F0.42227037042823706
sg26
F8191755.0
sg27
F0.0
ssS'BHATNAGAR SANJAY'
p260
(dp261
g3
F0.0
sg4
F0.0
sg5
F0.0
sg6
F137864.0
sg7
F0.0
sg8
F0.0
sg9
F0.0
sg10
F0.0
sg11
F0.0
sg12
F0.034482758620689655
sg13
F-2604490.0
sg14
F463.0
sg15
F0.0
sg16
F0.0
sg17
F0.0
sg18
F0.0
sg19
F15456290.0
sg20
F112.11258921836013
sg21
F1.0
sg22
F2604490.0
sg23
F0.0
sg24
F137864.0
sg25
F0.0
sg26
F15456290.0
sg27
F0.0
ssS'BUCHANAN HAROLD G'
p262
(dp263
g3
F0.0
sg4
F0.0
sg5
F0.2890141347212358
sg6
F600.0
sg7
F0.0
sg8
F304805.0
sg9
F0.0
sg10
F0.0
sg11
F0.0
sg12
F0.0
sg13
F0.0
sg14
F23.0
sg15
F0.0
sg16
F1215.0
sg17
F0.0
sg18
F500000.0
sg19
F1014505.0
sg20
F0.7826996397812707
sg21
F0.0
sg22
F189041.0
sg23
F248017.0
sg24
F1054637.0
sg25
F0.47409677453000415
sg26
F825464.0
sg27
F0.0
ssS'YEAP SOON'
p264
(dp265
g3
F0.0
sg4
F0.02763592670471613
sg5
F0.0
sg6
F55097.0
sg7
F0.0
sg8
F0.0
sg9
F35.0
sg10
F0.0
sg11
F0.0
sg12
F0.07075127644055434
sg13
F0.0
sg14
F740.5
sg15
F0.0
sg16
F0.0
sg17
F0.0
sg18
F0.0
sg19
F192758.0
sg20
F3.4985207906056592
sg21
F8.0
sg22
F0.0
sg23
F0.0
sg24
F55097.0
sg25
F0.0
sg26
F192758.0
sg27
F0.0
ssS'MURRAY JULIA H'
p266
(dp267
g3
F0.0
sg4
F0.005018248175182482
sg5
F0.15390411650418495
sg6
F57580.0
sg7
F0.0
sg8
F125000.0
sg9
F11.0
sg10
F0.0
sg11
F0.0
sg12
F0.044444444444444446
sg13
F0.0
sg14
F395.0
sg15
F0.0
sg16
F330.0
sg17
F0.0
sg18
F400000.0
sg19
F597461.0
sg20
F0.4930817021549039
sg21
F2.0
sg22
F196983.0
sg23
F229284.0
sg24
F812194.0
sg25
F0.4924931728133919
sg26
F400478.0
sg27
F0.0
ssS'GARLAND C KEVIN'
p268
(dp269
g3
F0.0
sg4
F0.04784688995215311
sg5
F0.23958597329407733
sg6
F48405.0
sg7
F0.0
sg8
F375304.0
sg9
F10.0
sg10
F0.0
sg11
F0.0
sg12
F0.6136363636363636
sg13
F0.0
sg14
F178.0
sg15
F0.0
sg16
F60814.0
sg17
F0.0
sg18
F850000.0
sg19
F896153.0
sg20
F0.40616571409967256
sg21
F27.0
sg22
F259907.0
sg23
F231946.0
sg24
F1566469.0
sg25
F0.5426216541789208
sg26
F636246.0
sg27
F0.0
ssS'DODSON KEITH'
p270
(dp271
g3
F0.0
sg4
F0.056818181818181816
sg5
F0.0
sg6
F28164.0
sg7
F0.0
sg8
F0.0
sg9
F10.0
sg10
F0.0
sg11
F0.0
sg12
F0.21428571428571427
sg13
F0.0
sg14
F114.0
sg15
F0.0
sg16
F774.0
sg17
F0.0
sg18
F70000.0
sg19
F0.0
sg20
F0.0
sg21
F3.0
sg22
F0.0
sg23
F221003.0
sg24
F319941.0
sg25
F0.21879033946883958
sg26
F0.0
sg27
F0.0
ssS'YEAGER F SCOTT'
p272
(dp273
g3
F0.0
sg4
F0.024628450106157114
sg5
F0.0
sg6
F53947.0
sg7
F1.0
sg8
F0.0
sg9
F35.0
sg10
F0.0
sg11
F0.0
sg12
F0.2222222222222222
sg13
F0.0
sg14
F772.0
sg15
F0.0
sg16
F147950.0
sg17
F0.0
sg18
F0.0
sg19
F11884758.0
sg20
F23.060094365806272
sg21
F8.0
sg22
F3576206.0
sg23
F158403.0
sg24
F360300.0
sg25
F0.0
sg26
F8308552.0
sg27
F0.0
ssS'HIRKO JOSEPH'
p274
(dp275
g3
F10259.0
sg4
F0.02763592670471613
sg5
F0.0
sg6
F77978.0
sg7
F1.0
sg8
F0.0
sg9
F35.0
sg10
F0.0
sg11
F2998.9340091626864
sg12
F0.07075127644055434
sg13
F0.0
sg14
F740.5
sg15
F0.0
sg16
F2856.0
sg17
F0.0
sg18
F0.0
sg19
F30766064.0
sg20
F337.7434490026676
sg21
F8.0
sg22
F0.0
sg23
F0.0
sg24
F91093.0
sg25
F0.0
sg26
F30766064.0
sg27
F0.0
ssS'DIETRICH JANET R'
p276
(dp277
g3
F0.0
sg4
F0.11858475894245724
sg5
F0.3944914581300905
sg6
F3475.0
sg7
F0.0
sg8
F556416.0
sg9
F305.0
sg10
F0.0
sg11
F0.0
sg12
F0.2222222222222222
sg13
F0.0
sg14
F1902.0
sg15
F0.0
sg16
F473.0
sg17
F0.0
sg18
F600000.0
sg19
F1865087.0
sg20
F1.098942617464891
sg21
F14.0
sg22
F315068.0
sg23
F250100.0
sg24
F1410464.0
sg25
F0.4253919277627788
sg26
F1550019.0
sg27
F0.0
ssS'DERRICK JR. JAMES V'
p278
(dp279
g3
F0.0
sg4
F0.029344337459880788
sg5
F0.8784331946110664
sg6
F51124.0
sg7
F0.0
sg8
F484000.0
sg9
F64.0
sg10
F-1284000.0
sg11
F0.0
sg12
F0.022002200220022004
sg13
F-1787380.0
sg14
F1401.0
sg15
F0.0
sg16
F7482.0
sg17
F0.0
sg18
F800000.0
sg19
F8831913.0
sg20
F16.02943295685332
sg21
F20.0
sg22
F1787380.0
sg23
F492375.0
sg24
F550981.0
sg25
F1.4519556935720106
sg26
F8831913.0
sg27
F0.0
ssS'FREVERT MARK A'
p280
(dp281
g3
F6426990.0
sg4
F0.07389312977099237
sg5
F0.09372602163276922
sg6
F86987.0
sg7
F0.0
sg8
F1617011.0
sg9
F242.0
sg10
F-3367011.0
sg11
F1.6233910430854879
sg12
F0.2857142857142857
sg13
F0.0
sg14
F2979.0
sg15
F0.31118766327627706
sg16
F7427621.0
sg17
F0.0
sg18
F2000000.0
sg19
F14622185.0
sg20
F0.6047529260925789
sg21
F6.0
sg22
F4188667.0
sg23
F1060932.0
sg24
F17252530.0
sg25
F0.1159250266482655
sg26
F10433518.0
sg27
F0.6517307479862269
ssS'PAI LOU L'
p282
(dp283
g3
F0.0
sg4
F0.02763592670471613
sg5
F0.0
sg6
F32047.0
sg7
F0.0
sg8
F0.0
sg9
F35.0
sg10
F0.0
sg11
F0.0
sg12
F0.07075127644055434
sg13
F0.0
sg14
F740.5
sg15
F0.0
sg16
F1829457.0
sg17
F0.0
sg18
F1000000.0
sg19
F23817930.0
sg20
F4.919078768117775
sg21
F8.0
sg22
F8453763.0
sg23
F261879.0
sg24
F3123383.0
sg25
F0.3201656665224854
sg26
F15364167.0
sg27
F0.0
ssS'BAY FRANKLIN R'
p284
(dp285
g3
F260455.0
sg4
F0.024628450106157114
sg5
F0.0
sg6
F129142.0
sg7
F0.0
sg8
F0.0
sg9
F35.0
sg10
F-201641.0
sg11
F0.0
sg12
F0.2222222222222222
sg13
F-82782.0
sg14
F772.0
sg15
F1.5357739340769039
sg16
F69.0
sg17
F0.0
sg18
F400000.0
sg19
F63014.0
sg20
F0.0
sg21
F8.0
sg22
F145796.0
sg23
F239671.0
sg24
F827696.0
sg25
F0.48326921961686414
sg26
F0.0
sg27
F0.5597742412316907
ssS'MCCARTY DANNY J'
p286
(dp287
g3
F0.0
sg4
F0.017445917655268667
sg5
F0.0
sg6
F0.0
sg7
F0.0
sg8
F0.0
sg9
F25.0
sg10
F0.0
sg11
F0.0
sg12
F0.009302325581395349
sg13
F0.0
sg14
F508.0
sg15
F0.0
sg16
F0.0
sg17
F0.0
sg18
F0.0
sg19
F758931.0
sg20
F0.0
sg21
F2.0
sg22
F94556.0
sg23
F0.0
sg24
F0.0
sg25
F0.0
sg26
F664375.0
sg27
F0.0
ssS'FUGH JOHN L'
p288
(dp289
g3
F50591.0
sg4
F0.02763592670471613
sg5
F0.0
sg6
F0.0
sg7
F0.0
sg8
F0.0
sg9
F35.0
sg10
F0.0
sg11
F3.4863513273111817
sg12
F0.07075127644055434
sg13
F0.0
sg14
F740.5
sg15
F0.0
sg16
F0.0
sg17
F0.0
sg18
F0.0
sg19
F176378.0
sg20
F3.4863513273111817
sg21
F8.0
sg22
F0.0
sg23
F0.0
sg24
F50591.0
sg25
F0.0
sg26
F176378.0
sg27
F0.0
ssS'FALLON JAMES B'
p290
(dp291
g3
F0.0
sg4
F0.023931623931623933
sg5
F0.10182600085955053
sg6
F95924.0
sg7
F0.0
sg8
F374347.0
sg9
F42.0
sg10
F0.0
sg11
F0.0
sg12
F0.49333333333333335
sg13
F0.0
sg14
F1604.0
sg15
F0.0
sg16
F401481.0
sg17
F0.0
sg18
F2500000.0
sg19
F2332399.0
sg20
F0.25575898855927365
sg21
F37.0
sg22
F1392142.0
sg23
F304588.0
sg24
F3676340.0
sg25
F0.6800241544579664
sg26
F940257.0
sg27
F0.0
ssS'KOENIG MARK E'
p292
(dp293
g3
F0.0
sg4
F0.02232518955349621
sg5
F0.18898578259957505
sg6
F127017.0
sg7
F1.0
sg8
F300000.0
sg9
F53.0
sg10
F0.0
sg11
F0.0
sg12
F0.2459016393442623
sg13
F0.0
sg14
F2271.0
sg15
F0.0
sg16
F150458.0
sg17
F0.0
sg18
F700000.0
sg19
F1920055.0
sg20
F0.4231624754869691
sg21
F15.0
sg22
F1248318.0
sg23
F309946.0
sg24
F1587421.0
sg25
F0.44096682606567505
sg26
F671737.0
sg27
F0.0
ssS'SAVAGE FRANK'
p294
(dp295
g3
F0.0
sg4
F0.02763592670471613
sg5
F0.0
sg6
F0.0
sg7
F0.0
sg8
F0.0
sg9
F35.0
sg10
F-121284.0
sg11
F0.0
sg12
F0.07075127644055434
sg13
F0.0
sg14
F740.5
sg15
F0.0
sg16
F0.0
sg17
F125034.0
sg18
F0.0
sg19
F0.0
sg20
F0.0
sg21
F8.0
sg22
F0.0
sg23
F0.0
sg24
F3750.0
sg25
F0.0
sg26
F0.0
sg27
F0.0
ssS'IZZO LAWRENCE L'
p296
(dp297
g3
F0.0
sg4
F0.056451612903225805
sg5
F0.15786049274700495
sg6
F28093.0
sg7
F0.0
sg8
F312500.0
sg9
F28.0
sg10
F0.0
sg11
F0.0
sg12
F0.2631578947368421
sg13
F0.0
sg14
F437.0
sg15
F0.0
sg16
F1553729.0
sg17
F0.0
sg18
F0.0
sg19
F5819980.0
sg20
F1.0937443801664581
sg21
F5.0
sg22
F3654808.0
sg23
F85274.0
sg24
F1979596.0
sg25
F0.0
sg26
F2165172.0
sg27
F0.0
ssS'TILNEY ELIZABETH A'
p298
(dp299
g3
F0.0
sg4
F0.021739130434782608
sg5
F0.6885448668354227
sg6
F0.0
sg7
F0.0
sg8
F275000.0
sg9
F10.0
sg10
F-575000.0
sg11
F0.0
sg12
F0.5789473684210527
sg13
F0.0
sg14
F379.0
sg15
F0.0
sg16
F152055.0
sg17
F0.0
sg18
F300000.0
sg19
F1168042.0
sg20
F1.480371463696159
sg21
F11.0
sg22
F576792.0
sg23
F247338.0
sg24
F399393.0
sg25
F0.7511398547295521
sg26
F591250.0
sg27
F0.0
ssS'MARTIN AMANDA K'
p300
(dp301
g3
F85430.0
sg4
F0.005256241787122208
sg5
F0.6120404671526735
sg6
F8211.0
sg7
F0.0
sg8
F5145434.0
sg9
F8.0
sg10
F0.0
sg11
F24.233945920636778
sg12
F0.0
sg13
F0.0
sg14
F477.0
sg15
F0.0
sg16
F2818454.0
sg17
F0.0
sg18
F0.0
sg19
F2070306.0
sg20
F0.24625931483893929
sg21
F0.0
sg22
F0.0
sg23
F349487.0
sg24
F8407016.0
sg25
F0.0
sg26
F2070306.0
sg27
F0.0
ssS'BUY RICHARD B'
p302
(dp303
g3
F649584.0
sg4
F0.04428044280442804
sg5
F0.32680788996231275
sg6
F0.0
sg7
F0.0
sg8
F769862.0
sg9
F156.0
sg10
F-694862.0
sg11
F3.914525296189561
sg12
F0.06742640075973409
sg13
F0.0
sg14
F2333.0
sg15
F1.3855021059632011
sg16
F400572.0
sg17
F0.0
sg18
F900000.0
sg19
F3444470.0
sg20
F1.0794289770098255
sg21
F71.0
sg22
F901657.0
sg23
F330546.0
sg24
F2355702.0
sg25
F0.38205171961479
sg26
F2542813.0
sg27
F1.3880529692849577
ssS'GRAMM WENDY L'
p304
(dp305
g3
F0.0
sg4
F0.02763592670471613
sg5
F0.0
sg6
F0.0
sg7
F0.0
sg8
F0.0
sg9
F35.0
sg10
F0.0
sg11
F0.0
sg12
F0.07075127644055434
sg13
F0.0
sg14
F740.5
sg15
F0.0
sg16
F0.0
sg17
F119292.0
sg18
F0.0
sg19
F0.0
sg20
F0.0
sg21
F8.0
sg22
F0.0
sg23
F0.0
sg24
F119292.0
sg25
F0.0
sg26
F0.0
sg27
F0.0
ssS'CAUSEY RICHARD A'
p306
(dp307
g3
F0.0
sg4
F0.0306553911205074
sg5
F0.18729016812235721
sg6
F30674.0
sg7
F1.0
sg8
F350000.0
sg9
F58.0
sg10
F-235000.0
sg11
F0.0
sg12
F0.24489795918367346
sg13
F0.0
sg14
F1585.0
sg15
F0.0
sg16
F307895.0
sg17
F0.0
sg18
F1000000.0
sg19
F2502063.0
sg20
F0.0
sg21
F12.0
sg22
F2502063.0
sg23
F415189.0
sg24
F1868758.0
sg25
F0.5351147660638778
sg26
F0.0
sg27
F0.0
ssS'TAYLOR MITCHELL S'
p308
(dp309
g3
F227449.0
sg4
F0.0
sg5
F0.0
sg6
F0.0
sg7
F0.0
sg8
F0.0
sg9
F0.0
sg10
F0.0
sg11
F13.98665195274545
sg12
F0.0
sg13
F0.0
sg14
F300.0
sg15
F2.63795400287537
sg16
F0.0
sg17
F0.0
sg18
F600000.0
sg19
F3745048.0
sg20
F2.9114649255992013
sg21
F0.0
sg22
F563798.0
sg23
F265214.0
sg24
F1092663.0
sg25
F0.5491171568910085
sg26
F3181250.0
sg27
F2.4787886515218798
ssS'DONAHUE JR JEFFREY M'
p310
(dp311
g3
F0.0
sg4
F0.21734104046242775
sg5
F0.0
sg6
F96268.0
sg7
F0.0
sg8
F0.0
sg9
F188.0
sg10
F-300000.0
sg11
F0.0
sg12
F0.5
sg13
F0.0
sg14
F772.0
sg15
F0.0
sg16
F891.0
sg17
F0.0
sg18
F800000.0
sg19
F1080988.0
sg20
F0.874577509820042
sg21
F11.0
sg22
F315068.0
sg23
F278601.0
sg24
F875760.0
sg25
F0.9134922809902256
sg26
F765920.0
sg27
F0.0
ssS'GLISAN JR BEN F'
p312
(dp313
g3
F0.0
sg4
F0.05956471935853379
sg5
F0.055823228147174685
sg6
F125978.0
sg7
F1.0
sg8
F71023.0
sg9
F52.0
sg10
F0.0
sg11
F0.0
sg12
F0.375
sg13
F0.0
sg14
F874.0
sg15
F0.0
sg16
F200308.0
sg17
F0.0
sg18
F600000.0
sg19
F778546.0
sg20
F0.3023916043902148
sg21
F6.0
sg22
F393818.0
sg23
F274975.0
sg24
F1272284.0
sg25
F0.4715928204709012
sg26
F384728.0
sg27
F0.0
ss.