(lp0
S'poi'
p1
aS'salary'
p2
aS'bonus'
p3
aS'long_term_incentive'
p4
aS'deferred_income'
p5
aS'deferral_payments'
p6
aS'other'
p7
aS'expenses'
p8
aS'director_fees'
p9
aS'total_payments'
p10
aS'exercised_stock_options'
p11
aS'restricted_stock'
p12
aS'restricted_stock_deferred'
p13
aS'total_stock_value'
p14
aS'from_this_person_to_poi'
p15
aS'from_poi_to_this_person'
p16
aS'shared_receipt_with_poi'
p17
aS'bonus_deferral_payments_rate'
p18
aS'rest_stock_deferral_payments_rate'
p19
aS'exer_stock_options_deferral_payments_rate'
p20
aS'long_term_incentive_total_payments_rate'
p21
aS'bonus_total_payments_rate'
p22
aS'exer_stock_options_total_payments_rate'
p23
aS'toPOI_rate'
p24
aS'fromPOI_rate'
p25
a.