(lp0
S'poi'
p1
aS'bonus'
p2
aS'long_term_incentive'
p3
aS'deferred_income'
p4
aS'deferral_payments'
p5
aS'other'
p6
aS'expenses'
p7
aS'director_fees'
p8
aS'total_payments'
p9
aS'exercised_stock_options'
p10
aS'restricted_stock'
p11
aS'restricted_stock_deferred'
p12
aS'total_stock_value'
p13
aS'shared_receipt_with_poi'
p14
aS'bonus_total_payments_rate'
p15
aS'exer_stock_options_total_payments_rate'
p16
aS'toPOI_rate'
p17
aS'fromPOI_rate'
p18
a.