(lp0
S'poi'
p1
aS'salary'
p2
aS'bonus'
p3
aS'long_term_incentive'
p4
aS'deferred_income'
p5
aS'other'
p6
aS'expenses'
p7
aS'total_payments'
p8
aS'restricted_stock'
p9
aS'total_stock_value'
p10
aS'long_term_incentive_total_payments_rate'
p11
aS'bonus_total_payments_rate'
p12
aS'toPOI_rate'
p13
a.