ccopy_reg
_reconstructor
p0
(chelper
flex_classifier
p1
c__builtin__
object
p2
Ntp3
Rp4
(dp5
S'feasibiliy'
p6
I01
sS'min_precision'
p7
F0.35
sS'maximize'
p8
S'recall'
p9
sS'threshold'
p10
cnumpy.core.multiarray
scalar
p11
(cnumpy
dtype
p12
(S'f8'
p13
I0
I1
tp14
Rp15
(I3
S'<'
p16
NNNI-1
I-1
I0
tp17
bS'\xe3{Ne\xcc\xd63\xc0'
p18
tp19
Rp20
sS'classifier'
p21
g0
(csklearn.linear_model.stochastic_gradient
SGDClassifier
p22
g2
Ntp23
Rp24
(dp25
S't_'
p26
F501.0
sS'n_jobs'
p27
NsS'shuffle'
p28
I01
sS'verbose'
p29
I0
sS'classes_'
p30
cnumpy.core.multiarray
_reconstruct
p31
(cnumpy
ndarray
p32
(I0
tp33
S'b'
p34
tp35
Rp36
(I1
(L2L
tp37
g12
(S'u1'
p38
I0
I1
tp39
Rp40
(I3
S'|'
p41
NNNI-1
I-1
I0
tp42
bI00
S'\x00\x01'
p43
tp44
bsS'_tol'
p45
NsS'class_weight'
p46
NsS'n_iter_no_change'
p47
I5
sS'fit_intercept'
p48
I01
sS'n_iter_'
p49
I5
sS'penalty'
p50
S'l1'
p51
sS'random_state'
p52
I77
sS'_sklearn_version'
p53
S'0.20.3'
p54
sS'_expanded_class_weight'
p55
g31
(g32
(I0
tp56
g34
tp57
Rp58
(I1
(L2L
tp59
g15
I00
S'\x00\x00\x00\x00\x00\x00\xf0?\x00\x00\x00\x00\x00\x00\xf0?'
p60
tp61
bsS'tol'
p62
NsS'validation_fraction'
p63
F0.1
sS'C'
p64
F1.0
sS'n_iter'
p65
NsS'epsilon'
p66
F0.1
sS'learning_rate'
p67
S'optimal'
p68
sS'max_iter'
p69
NsS'coef_'
p70
g31
(g32
(I0
tp71
g34
tp72
Rp73
(I1
(L1L
L12L
tp74
g15
I00
S'\xfcn\x8c\x01U+;\xc0t\x08\xfb@\x9e=1@>\x95:\x99\xb46%\xc0\xae&\x80\xd3\xbd\xd4+@\xbe\xee\x84"-\xabJ@rsK\x840W;\xc0\xe6W1A\x8b\xceD@afD\x93T\xe4/@\xfa\xce\x7f\xc0\x7f\xee:\xc0\xd0\xfb\xeb&\xeat-@\xe9\xbb\xdf\xa4fN1@\xecM\xc6\xdc\x95\xbeA@'
p75
tp76
bsS'alpha'
p77
g11
(g15
S'\xa1\x86\xd5\xd1\xaa\xb8\x1f?'
p78
tp79
Rp80
sS'intercept_'
p81
g31
(g32
(I0
tp82
g34
tp83
Rp84
(I1
(L1L
tp85
g15
I00
S'j\x9c\xbcoH\xf4Y\xc0'
p86
tp87
bsS'_max_iter'
p88
I5
sS'early_stopping'
p89
I00
sS'warm_start'
p90
I00
sS'loss'
p91
S'hinge'
p92
sS'eta0'
p93
F0.0
sS'l1_ratio'
p94
F0.15
sS'average'
p95
I00
sS'power_t'
p96
F0.5
sS'loss_function_'
p97
csklearn.linear_model.sgd_fast
Hinge
p98
(F1.0
tp99
Rp100
sbsS'min_recall'
p101
F0.4
sb.