(dp0
S'METTS MARK'
p1
(dp2
S'salary'
p3
F0.8573897334238753
sS'exer_stock_options_deferral_payments_rate'
p4
F-0.5416472638835655
sS'bonus_total_payments_rate'
p5
F0.9824450530172504
sS'total_stock_value'
p6
F-0.11336417205850076
sS'expenses'
p7
F1.0330977891327136
sS'exercised_stock_options'
p8
F-1.3673275855282496
sS'bonus_deferral_payments_rate'
p9
F-0.43476534059333694
sS'other'
p10
F0.2501586891822855
sS'poi'
p11
F0.0
sS'long_term_incentive'
p12
F-0.9567164716097402
sS'shared_receipt_with_poi'
p13
F-0.09312172227889187
sS'toPOI_rate'
p14
F-0.7698369108787503
sS'deferred_income'
p15
F0.7477978826544927
ssS'BAXTER JOHN C'
p16
(dp17
g3
F0.7422146199084926
sg4
F2.0433618519199843
sg5
F0.0491889587247861
sg6
F1.368455388130901
sg7
F0.2931362744113618
sg8
F1.1343587339123558
sg9
F2.312630338301306
sg10
F1.585211957673452
sg11
F0.0
sg12
F1.1865130464217295
sg13
F-0.03933147416811105
sg14
F-0.16919953101609733
sg15
F-1.4582430318722204
ssS'ELLIOTT STEVEN'
p18
(dp19
g3
F0.5872840353806875
sg4
F-0.5416472638835655
sg5
F1.931066903239839
sg6
F1.0715568755042382
sg7
F0.9611815854048836
sg8
F1.0351856558982446
sg9
F-0.43476534059333694
sg10
F0.6223624143867823
sg11
F0.0
sg12
F-0.9567164716097402
sg13
F-0.03933147416811105
sg14
F-0.16919953101609733
sg15
F-1.3968414049063556
ssS'CORDES WILLIAM R'
p20
(dp21
g3
F-1.3569417648407054
sg4
F-0.5416472638835655
sg5
F-1.0284311083917295
sg6
F0.11736875853892914
sg7
F-1.3213147625340265
sg8
F0.46646457097962896
sg9
F-0.43476534059333694
sg10
F-1.178753094496733
sg11
F0.0
sg12
F-0.9567164716097402
sg13
F-1.7784276582411287
sg14
F-1.5170300344281538
sg15
F0.7477978826544927
ssS'HANNON KEVIN P'
p22
(dp23
g3
F0.7089901827631105
sg4
F-0.5416472638835655
sg5
F2.3709882076499635
sg6
F1.0447619773245476
sg7
F0.6532585116215225
sg8
F1.0743415391800797
sg9
F-0.43476534059333694
sg10
F0.597913264176756
sg11
F1.0
sg12
F1.1889382571275207
sg13
F0.3208252936759849
sg14
F1.9680813576169247
sg15
F-1.4925911440655177
ssS'MORDAUNT KRISTINA M'
p24
(dp25
g3
F0.7422025496745044
sg4
F-0.5416472638835655
sg5
F0.8911388485869313
sg6
F-0.46874716244001763
sg7
F0.6631529109582832
sg8
F-1.3673275855282496
sg9
F-0.43476534059333694
sg10
F0.21103250395595644
sg11
F0.0
sg12
F-0.9567164716097402
sg13
F-0.03933147416811105
sg14
F-0.16919953101609733
sg15
F0.7477978826544927
ssS'MEYER ROCKFORD G'
p26
(dp27
g3
F-1.3569417648407054
sg4
F0.35043155372263585
sg5
F-1.0284311083917295
sg6
F0.08252490951314584
sg7
F-1.3213147625340265
sg8
F0.39687018416352665
sg9
F-0.43476534059333694
sg10
F-1.178753094496733
sg11
F0.0
sg12
F-0.9567164716097402
sg13
F-2.1317574905492025
sg14
F-1.5170300344281538
sg15
F0.7477978826544927
ssS'MCMAHON JEFFREY'
p28
(dp29
g3
F0.8621350573144981
sg4
F-0.5416472638835655
sg5
F1.1005513544982486
sg6
F0.3271583484006931
sg7
F1.1859464248404972
sg8
F0.6038702929879715
sg9
F-0.43476534059333694
sg10
F1.1931479923616382
sg11
F0.0
sg12
F1.0818929119627707
sg13
F1.3145408902840352
sg14
F1.896500243402099
sg15
F0.7477978826544927
ssS'HORTON STANLEY C'
p30
(dp31
g3
F-1.3569417648407054
sg4
F1.6500889339849822
sg5
F-1.0284311083917295
sg6
F1.122693077598875
sg7
F-1.3213147625340265
sg8
F1.0550910378544038
sg9
F-0.43476534059333694
sg10
F-1.178753094496733
sg11
F0.0
sg12
F-0.9567164716097402
sg13
F0.36314344950372085
sg14
F-1.189898769049783
sg15
F0.7477978826544927
ssS'PIPER GREGORY F'
p32
(dp33
g3
F0.6356388259720084
sg4
F1.1431979578963885
sg5
F0.11344661282204485
sg6
F0.04833251606442156
sg7
F0.7363946893613236
sg8
F0.5438852706143519
sg9
F1.768495431673605
sg10
F0.09962740036843269
sg11
F0.0
sg12
F-0.9567164716097402
sg13
F-0.03727380494340141
sg14
F1.142514525621479
sg15
F-1.23335780780569
ssS'HUMPHREY GENE E'
p34
(dp35
g3
F0.4987729188058919
sg4
F1.1344205637700153
sg5
F-1.0284311083917295
sg6
F0.4795034520465949
sg7
F0.06267983249892413
sg8
F0.8060620057229321
sg9
F-0.43476534059333694
sg10
F-1.178753094496733
sg11
F0.0
sg12
F-0.9567164716097402
sg13
F-1.4281987068307862
sg14
F2.0497936821686946
sg15
F0.7477978826544927
ssS'UMANOFF ADAM S'
p36
(dp37
g3
F0.7700831026487311
sg4
F-0.5416472638835655
sg5
F1.1970430652811972
sg6
F-1.9176209058014688
sg7
F0.8129163420840857
sg8
F-1.3673275855282496
sg9
F-0.43476534059333694
sg10
F-1.178753094496733
sg11
F0.0
sg12
F-0.9567164716097402
sg13
F-1.9188792409119824
sg14
F-1.5170300344281538
sg15
F0.7477978826544927
ssS'BLACHMAN JEREMY M'
p38
(dp39
g3
F0.7165531544239442
sg4
F-0.5416472638835655
sg5
F0.6828118158943395
sg6
F0.08185954668241359
sg7
F0.9883448944671779
sg8
F0.5075159023502567
sg9
F-0.43476534059333694
sg10
F-0.09787909403159292
sg11
F0.0
sg12
F1.1048768797312574
sg13
F1.378244269500253
sg14
F0.6425196471821752
sg15
F0.7477978826544927
ssS'SUNDE MARTIN'
p40
(dp41
g3
F0.7291145884339789
sg4
F-0.5416472638835655
sg5
F0.7554194822207607
sg6
F-0.044563590143220595
sg7
F-1.3213147625340265
sg8
F-1.3673275855282496
sg9
F-0.43476534059333694
sg10
F1.0151285454220245
sg11
F0.0
sg12
F1.0333513332525397
sg13
F1.5264435263375602
sg14
F1.6036261879239768
sg15
F0.7477978826544927
ssS'GIBBS DANA R'
p42
(dp43
g3
F-1.3569417648407054
sg4
F2.011863713792921
sg5
F-1.0284311083917295
sg6
F0.46533378658688723
sg7
F-1.3213147625340265
sg8
F0.797792279975503
sg9
F-0.43476534059333694
sg10
F-1.178753094496733
sg11
F0.0
sg12
F1.0293448723967347
sg13
F-2.118077020477615
sg14
F-1.5170300344281538
sg15
F0.7477978826544927
ssS'LOWRY CHARLES P'
p44
(dp45
g3
F-1.3569417648407054
sg4
F-0.5416472638835655
sg5
F-1.0284311083917295
sg6
F-0.2779778493865944
sg7
F-1.3213147625340265
sg8
F0.32836435022705446
sg9
F-0.43476534059333694
sg10
F-1.178753094496733
sg11
F0.0
sg12
F-0.9567164716097402
sg13
F-0.03933147416811105
sg14
F-0.16919953101609733
sg15
F0.7477978826544927
ssS'COLWELL WESLEY'
p46
(dp47
g3
F0.7700241166807278
sg4
F-0.5416472638835655
sg5
F1.3383316371439906
sg6
F-0.04494561502242371
sg7
F0.41297928671195855
sg8
F-1.3673275855282496
sg9
F2.4344341100170284
sg10
F0.9991169811822094
sg11
F1.0
sg12
F-0.9567164716097402
sg13
F0.42422672196473354
sg14
F1.4022239918866852
sg15
F-1.3368718647672695
ssS'MULLER MARK S'
p48
(dp49
g3
F0.720963502282139
sg4
F1.4805727693916462
sg5
F0.47840267314898216
sg6
F0.2536854208994574
sg7
F-1.3213147625340265
sg8
F0.5920536882396958
sg9
F2.383172979835659
sg10
F0.13645505644076086
sg11
F0.0
sg12
F1.1970806192363368
sg13
F-1.4516139486005455
sg14
F-1.5170300344281538
sg15
F-1.427193044936674
ssS'JACKSON CHARLENE R'
p50
(dp51
g3
F0.7700441979362024
sg4
F-0.5416472638835655
sg5
F0.7565922937311418
sg6
F-0.02968836253877394
sg7
F0.2646221980424867
sg8
F0.167055956041702
sg9
F-0.43476534059333694
sg10
F0.3127888807585833
sg11
F0.0
sg12
F-0.9567164716097402
sg13
F-1.4374853428339651
sg14
F1.5966877095786742
sg15
F0.7477978826544927
ssS'WESTFAHL RICHARD K'
p52
(dp53
g3
F0.2776751773152942
sg4
F-0.5416472638835655
sg5
F-1.0284311083917295
sg6
F-0.2662353413975452
sg7
F0.8041211785915686
sg8
F-1.3673275855282496
sg9
F-0.43476534059333694
sg10
F1.247055687293251
sg11
F0.0
sg12
F0.9525610285779369
sg13
F-0.03933147416811105
sg14
F-0.16919953101609733
sg15
F-1.1366287617477533
ssS'WALTERS GARETH W'
p54
(dp55
g3
F-1.3569417648407054
sg4
F2.1529658523277506
sg5
F-1.0284311083917295
sg6
F0.1141412373174499
sg7
F0.6506510902696915
sg8
F0.5854168817791016
sg9
F-0.43476534059333694
sg10
F-1.178753094496733
sg11
F0.0
sg12
F-0.9567164716097402
sg13
F-0.03933147416811105
sg14
F-0.16919953101609733
sg15
F0.7477978826544927
ssS'WALLS JR ROBERT H'
p56
(dp57
g3
F0.8483929456184166
sg4
F-0.5416472638835655
sg5
F0.7985377310018038
sg6
F0.9965884804280657
sg7
F0.7974390856298669
sg8
F0.9985371413823737
sg9
F-0.43476534059333694
sg10
F-0.9638053822423138
sg11
F0.0
sg12
F1.0496860383129631
sg13
F-1.0683501949477243
sg14
F-1.5170300344281538
sg15
F0.7477978826544927
ssS'KITCHEN LOUISE'
p58
(dp59
g3
F0.7479948810989252
sg4
F-0.5416472638835655
sg5
F1.4369978782878459
sg6
F-0.1386780391923436
sg7
F0.10230032398940983
sg8
F-0.009062045432603276
sg9
F-0.43476534059333694
sg10
F0.9846008850106639
sg11
F0.0
sg12
F-0.9567164716097402
sg13
F2.1120631630621456
sg14
F0.348021309404057
sg15
F0.7477978826544927
ssS'PRENTICE JAMES'
p60
(dp61
g3
F-1.3569417648407054
sg4
F1.6178549645298126
sg5
F-1.0284311083917295
sg6
F0.14015847575795584
sg7
F-1.3213147625340265
sg8
F0.5456463987531706
sg9
F-0.43476534059333694
sg10
F-1.178753094496733
sg11
F0.0
sg12
F-0.9567164716097402
sg13
F-0.03933147416811105
sg14
F-0.16919953101609733
sg15
F0.7477978826544927
ssS'BELFER ROBERT'
p62
(dp63
g3
F-1.3569417648407054
sg4
F-0.5416472638835655
sg5
F-1.0284311083917295
sg6
F-1.9176209058014688
sg7
F-0.04750704798332317
sg8
F-1.3673275855282496
sg9
F-0.43476534059333694
sg10
F-1.178753094496733
sg11
F0.0
sg12
F-0.9567164716097402
sg13
F-0.03933147416811105
sg14
F-0.16919953101609733
sg15
F-1.314788247818095
ssS'SHANKMAN JEFFREY A'
p64
(dp65
g3
F0.7891256998719159
sg4
F-0.5416472638835655
sg5
F1.138248917041726
sg6
F0.43193125702011553
sg7
F1.2994636557449353
sg8
F0.6764130918240985
sg9
F-0.43476534059333694
sg10
F0.17935219041741374
sg11
F0.0
sg12
F1.0529016628559067
sg13
F0.9581194646510977
sg14
F-0.8374222504919624
sg15
F0.7477978826544927
ssS'WODRASKA JOHN'
p66
(dp67
g3
F-1.3569417648407054
sg4
F-0.5416472638835655
sg5
F-1.0284311083917295
sg6
F-1.9176209058014688
sg7
F-1.3213147625340265
sg8
F-1.3673275855282496
sg9
F-0.43476534059333694
sg10
F1.1118916346933598
sg11
F0.0
sg12
F-0.9567164716097402
sg13
F-0.03933147416811105
sg14
F-0.16919953101609733
sg15
F0.7477978826544927
ssS'BERGSIEKER RICHARD P'
p68
(dp69
g3
F0.6193475884654469
sg4
F-0.5416472638835655
sg5
F0.6390203113652502
sg6
F-0.06743651561771379
sg7
F0.8530560594043225
sg8
F-1.3673275855282496
sg9
F-0.43476534059333694
sg10
F1.2584291650662114
sg11
F0.0
sg12
F0.906234971711383
sg13
F-1.0136534492647744
sg14
F-1.5170300344281538
sg15
F-1.4071337640929553
ssS'URQUHART JOHN A'
p70
(dp71
g3
F-1.3569417648407054
sg4
F-0.5416472638835655
sg5
F-1.0284311083917295
sg6
F-1.9176209058014688
sg7
F1.407378246045697
sg8
F-1.3673275855282496
sg9
F-0.43476534059333694
sg10
F-1.178753094496733
sg11
F0.0
sg12
F-0.9567164716097402
sg13
F-0.03933147416811105
sg14
F-0.16919953101609733
sg15
F-1.240811742316192
ssS'BIBI PHILIPPE A'
p72
(dp73
g3
F0.6634384031030105
sg4
F-0.5416472638835655
sg5
F0.8323804324772857
sg6
F0.3757964551740144
sg7
F0.697043344778245
sg8
F0.680934197181163
sg9
F-0.43476534059333694
sg10
F1.2577427927222748
sg11
F0.0
sg12
F1.0004745573522342
sg13
F0.6238363972537031
sg14
F1.0519337707568468
sg15
F0.7477978826544927
ssS'PIRO JIM'
p74
(dp75
g3
F-1.3569417648407054
sg4
F-0.5416472638835655
sg5
F-1.0284311083917295
sg6
F-0.8693469300815517
sg7
F-1.3213147625340265
sg8
F-1.3673275855282496
sg9
F-0.43476534059333694
sg10
F-1.178753094496733
sg11
F0.0
sg12
F-0.9567164716097402
sg13
F-2.5545977477897055
sg14
F-0.2919466867886885
sg15
F0.7477978826544927
ssS'RIEKER PAULA H'
p76
(dp77
g3
F0.7174865413466792
sg4
F2.098185457172486
sg5
F1.1048782730165574
sg6
F0.3948504375891122
sg7
F0.6453221660003654
sg8
F0.711307937992567
sg9
F2.431780694909963
sg10
F0.271408793952626
sg11
F1.0
sg12
F-0.9567164716097402
sg13
F0.5500839230826866
sg14
F1.9286546888208278
sg15
F-1.3131418834269075
ssS'WHALEY DAVID A'
p78
(dp79
g3
F-1.3569417648407054
sg4
F-0.5416472638835655
sg5
F-1.0284311083917295
sg6
F-0.6851210352959151
sg7
F-1.3213147625340265
sg8
F0.0316556452980516
sg9
F-0.43476534059333694
sg10
F-1.178753094496733
sg11
F0.0
sg12
F-0.9567164716097402
sg13
F-0.03933147416811105
sg14
F-0.16919953101609733
sg15
F0.7477978826544927
ssS'BECK SALLY W'
p80
(dp81
g3
F0.691229105854351
sg4
F-0.5416472638835655
sg5
F1.2316812227786091
sg6
F-0.6178839763963068
sg7
F0.6841039047956408
sg8
F-1.3673275855282496
sg9
F-0.43476534059333694
sg10
F0.039942030530775004
sg11
F0.0
sg12
F-0.9567164716097402
sg13
F1.5704551427210214
sg14
F0.07577265179958093
sg15
F0.7477978826544927
ssS'HAUG DAVID L'
p82
(dp83
g3
F-1.3569417648407054
sg4
F-0.5416472638835655
sg5
F-1.0284311083917295
sg6
F0.46511681729740756
sg7
F-0.4840183023778336
sg8
F-1.3673275855282496
sg9
F-0.43476534059333694
sg10
F-1.178753094496733
sg11
F0.0
sg12
F-0.9567164716097402
sg13
F-0.4661013528460014
sg14
F1.6631715170589851
sg15
F0.7477978826544927
ssS'ECHOLS JOHN B'
p84
(dp85
g3
F0.608915456104032
sg4
F-0.5416472638835655
sg5
F-0.5817684406080251
sg6
F0.10525278205737686
sg7
F0.49844222692885554
sg8
F0.446129879676896
sg9
F-0.43476534059333694
sg10
F0.8830919863525313
sg11
F0.0
sg12
F1.2293649153094939
sg13
F-0.03933147416811105
sg14
F-0.16919953101609733
sg15
F0.7477978826544927
ssS'MENDELSOHN JOHN'
p86
(dp87
g3
F-1.3569417648407054
sg4
F-0.5416472638835655
sg5
F-1.0284311083917295
sg6
F-1.9176209058014688
sg7
F-0.6976653873571192
sg8
F-1.3673275855282496
sg9
F-0.43476534059333694
sg10
F-1.178753094496733
sg11
F0.0
sg12
F-0.9567164716097402
sg13
F-0.03933147416811105
sg14
F-0.16919953101609733
sg15
F-1.3155942013771327
ssS'HICKERSON GARY J'
p88
(dp89
g3
F0.6604428541655006
sg4
F-0.5416472638835655
sg5
F1.35193698272706
sg6
F-0.21786428852737352
sg7
F1.0519284709873598
sg8
F-1.3673275855282496
sg9
F-0.43476534059333694
sg10
F0.27006547054872754
sg11
F0.0
sg12
F0.7781029456569091
sg13
F0.1655710912950407
sg14
F-0.7219719240519604
sg15
F0.7477978826544927
ssS'CLINE KENNETH W'
p90
(dp91
g3
F-1.3569417648407054
sg4
F-0.5416472638835655
sg5
F-1.0284311083917295
sg6
F-0.4981717817535711
sg7
F-1.3213147625340265
sg8
F-1.3673275855282496
sg9
F-0.43476534059333694
sg10
F-1.178753094496733
sg11
F0.0
sg12
F-0.9567164716097402
sg13
F-0.03933147416811105
sg14
F-0.16919953101609733
sg15
F0.7477978826544927
ssS'LEWIS RICHARD'
p92
(dp93
g3
F-1.3569417648407054
sg4
F-0.5416472638835655
sg5
F-1.0284311083917295
sg6
F0.03419306518676857
sg7
F-1.3213147625340265
sg8
F0.5348834693155994
sg9
F-0.43476534059333694
sg10
F-1.178753094496733
sg11
F0.0
sg12
F-0.9567164716097402
sg13
F-0.04139191784570357
sg14
F-1.5170300344281538
sg15
F0.7477978826544927
ssS'HAYES ROBERT E'
p94
(dp95
g3
F-1.3569417648407054
sg4
F-0.5416472638835655
sg5
F-1.0284311083917295
sg6
F-0.5652034648035961
sg7
F-1.3213147625340265
sg8
F-1.3673275855282496
sg9
F-0.43476534059333694
sg10
F-1.178753094496733
sg11
F0.0
sg12
F-0.9567164716097402
sg13
F-1.8406002842560116
sg14
F-1.5170300344281538
sg15
F0.7477978826544927
ssS'KOPPER MICHAEL J'
p96
(dp97
g3
F0.6804284163904073
sg4
F-0.5416472638835655
sg5
F0.3540466473936161
sg6
F0.09513523928513908
sg7
F1.124216453321764
sg8
F-1.3673275855282496
sg9
F-0.43476534059333694
sg10
F1.3935129162009405
sg11
F1.0
sg12
F1.063634710903695
sg13
F-0.03933147416811105
sg14
F-0.16919953101609733
sg15
F0.7477978826544927
ssS'LEFF DANIEL P'
p98
(dp99
g3
F0.7510313120282448
sg4
F-0.5416472638835655
sg5
F0.5654918232453331
sg6
F-0.289041176009462
sg7
F-1.3213147625340265
sg8
F-1.3673275855282496
sg9
F-0.43476534059333694
sg10
F0.3566828974322724
sg11
F0.0
sg12
F1.169691876135076
sg13
F1.5898171832500592
sg14
F1.1737175131749897
sg15
F0.7477978826544927
ssS'LAVORATO JOHN J'
p100
(dp101
g3
F0.8293736640637503
sg4
F-0.5416472638835655
sg5
F1.2913960283911041
sg6
F0.9185736705501253
sg7
F0.7872284867202093
sg8
F0.9849394435485367
sg9
F-0.43476534059333694
sg10
F0.22881950476309085
sg11
F0.0
sg12
F1.2177207923591016
sg13
F2.247148518699289
sg14
F0.7745272030750758
sg15
F0.7477978826544927
ssS'BERBERIAN DAVID'
p102
(dp103
g3
F0.6682141799914624
sg4
F-0.5416472638835655
sg5
F-1.0284311083917295
sg6
F0.5236849125919809
sg7
F0.3112415901219281
sg8
F0.7094516619686745
sg9
F-0.43476534059333694
sg10
F-1.178753094496733
sg11
F0.0
sg12
F-0.9567164716097402
sg13
F-0.03933147416811105
sg14
F-0.16919953101609733
sg15
F0.7477978826544927
ssS'DETMERING TIMOTHY J'
p104
(dp105
g3
F0.658329215055222
sg4
F1.810753296731551
sg5
F0.5044511491231022
sg6
F0.4214695369649414
sg7
F0.8068452071235773
sg8
F0.7720540964745097
sg9
F2.00852917047821
sg10
F0.16533428250221152
sg11
F0.0
sg12
F1.0156812578586178
sg13
F-0.03933147416811105
sg14
F-0.16919953101609733
sg15
F-1.4309131820617396
ssS'WAKEHAM JOHN'
p106
(dp107
g3
F-1.3569417648407054
sg4
F-0.5416472638835655
sg5
F-1.0284311083917295
sg6
F-1.9176209058014688
sg7
F1.0714773592261442
sg8
F-1.3673275855282496
sg9
F-0.43476534059333694
sg10
F-1.178753094496733
sg11
F0.0
sg12
F-0.9567164716097402
sg13
F-0.03933147416811105
sg14
F-0.16919953101609733
sg15
F0.7477978826544927
ssS'POWERS WILLIAM'
p108
(dp109
g3
F-1.3569417648407054
sg4
F-0.5416472638835655
sg5
F-1.0284311083917295
sg6
F-1.9176209058014688
sg7
F-1.3213147625340265
sg8
F-1.3673275855282496
sg9
F-0.43476534059333694
sg10
F-1.178753094496733
sg11
F0.0
sg12
F-0.9567164716097402
sg13
F-2.2975597516707595
sg14
F-1.5170300344281538
sg15
F-1.1800641537274965
ssS'GOLD JOSEPH'
p110
(dp111
g3
F0.7498925971907157
sg4
F-0.5416472638835655
sg5
F0.49472746869509854
sg6
F0.04707784578401484
sg7
F-1.3213147625340265
sg8
F0.36682719937111385
sg9
F-0.43476534059333694
sg10
F1.3752128021290229
sg11
F0.0
sg12
F0.97530898316755
sg13
F-0.03933147416811105
sg14
F-0.16919953101609733
sg15
F0.7477978826544927
ssS'BANNANTINE JAMES M'
p112
(dp113
g3
F-0.7548730159658464
sg4
F-0.5416472638835655
sg5
F-1.0284311083917295
sg6
F0.9271128736568397
sg7
F0.8344653319307616
sg8
F0.9764912914557697
sg9
F-0.43476534059333694
sg10
F1.3848319137773966
sg11
F0.0
sg12
F-0.9567164716097402
sg13
F-0.4772761777727919
sg14
F-1.5170300344281538
sg15
F-1.062623412421818
ssS'DUNCAN JOHN H'
p114
(dp115
g3
F-1.3569417648407054
sg4
F-0.5416472638835655
sg5
F-1.0284311083917295
sg6
F-0.27840366824024265
sg7
F-1.3213147625340265
sg8
F0.3280716127543436
sg9
F-0.43476534059333694
sg10
F-1.178753094496733
sg11
F0.0
sg12
F-0.9567164716097402
sg13
F-0.03933147416811105
sg14
F-0.16919953101609733
sg15
F-1.2102002055030494
ssS'SHAPIRO RICHARD S'
p116
(dp117
g3
F0.7448536265869256
sg4
F-0.5416472638835655
sg5
F1.068623658134228
sg6
F0.09597588468680633
sg7
F1.1879538183666285
sg8
F0.4487938674610757
sg9
F-0.43476534059333694
sg10
F0.08115303947670117
sg11
F0.0
sg12
F-0.9567164716097402
sg13
F2.489927760786829
sg14
F-0.4347022549559471
sg15
F0.7477978826544927
ssS'SHERRIFF JOHN R'
p118
(dp119
g3
F0.9175710163266442
sg4
F-0.5416472638835655
sg5
F0.4853557348906289
sg6
F0.6407451224692015
sg7
F-1.3213147625340265
sg8
F0.7437597807719559
sg9
F-0.43476534059333694
sg10
F1.5208317716618638
sg11
F0.0
sg12
F1.0529016628559067
sg13
F1.2305188129873097
sg14
F1.303406702197576
sg15
F0.7477978826544927
ssS'SHELBY REX'
p120
(dp121
g3
F0.660534500952537
sg4
F-0.5416472638835655
sg5
F-0.44815605189935365
sg6
F0.5236849125919809
sg7
F0.5185204078780491
sg8
F0.7094516619686745
sg9
F-0.43476534059333694
sg10
F1.4917656428652835
sg11
F1.0
sg12
F-0.9567164716097402
sg13
F-1.5690810425208523
sg14
F1.6428339809811903
sg15
F-1.0411251498819367
ssS'LEMAISTRE CHARLES'
p122
(dp123
g3
F-1.3569417648407054
sg4
F-0.5416472638835655
sg5
F-1.0284311083917295
sg6
F-0.2415034306116188
sg7
F-1.3213147625340265
sg8
F0.35331969057584073
sg9
F-0.43476534059333694
sg10
F-1.178753094496733
sg11
F0.0
sg12
F-0.9567164716097402
sg13
F-0.03933147416811105
sg14
F-0.16919953101609733
sg15
F-1.2102002055030494
ssS'DEFFNER JOSEPH M'
p124
(dp125
g3
F0.651059143872646
sg4
F-0.5416472638835655
sg5
F0.8491742052518455
sg6
F-0.5504682761592445
sg7
F0.7242790158163916
sg8
F-0.2997021407231302
sg9
F-0.43476534059333694
sg10
F0.7470622736454284
sg11
F0.0
sg12
F0.9877712013631774
sg13
F-0.3237322126584739
sg14
F-0.42560339934004177
sg15
F0.7477978826544927
ssS'KISHKILL JOSEPH G'
p126
(dp127
g3
F0.593732516190854
sg4
F-0.5416472638835655
sg5
F-1.0284311083917295
sg6
F0.11579402801120488
sg7
F1.1179252796473313
sg8
F-1.3673275855282496
sg9
F-0.43476534059333694
sg10
F1.2737593373152838
sg11
F0.0
sg12
F-0.9567164716097402
sg13
F-0.03933147416811105
sg14
F-0.16919953101609733
sg15
F-1.265872830752863
ssS'WHALLEY LAWRENCE G'
p128
(dp129
g3
F0.9851174713152526
sg4
F-0.5416472638835655
sg5
F1.1119939424432332
sg6
F1.014587007668695
sg7
F0.8445073946606639
sg8
F0.913075419299495
sg9
F-0.43476534059333694
sg10
F1.1953608454084024
sg11
F0.0
sg12
F1.1012278640972535
sg13
F2.2282026546265077
sg14
F-0.6108385476416006
sg15
F0.7477978826544927
ssS'HAYSLETT RODERICK J'
p130
(dp131
g3
F-1.3569417648407054
sg4
F-0.5416472638835655
sg5
F-1.0284311083917295
sg6
F-0.30255858949035636
sg7
F-1.3213147625340265
sg8
F-1.3673275855282496
sg9
F-0.43476534059333694
sg10
F-1.178753094496733
sg11
F0.0
sg12
F-0.9567164716097402
sg13
F-0.29237946368586665
sg14
F-0.7447509766664148
sg15
F0.7477978826544927
ssS'MCCONNELL MICHAEL S'
p132
(dp133
g3
F0.8566211581772698
sg4
F-0.5416472638835655
sg5
F0.9037696510768578
sg6
F0.6360604217199232
sg7
F0.9748913359108995
sg8
F0.7092135629267874
sg9
F-0.43476534059333694
sg10
F0.031111267615535183
sg11
F0.0
sg12
F1.0529016628559067
sg13
F1.2886705487279573
sg14
F-0.16919953101609733
sg15
F0.7477978826544927
ssS'DELAINEY DAVID W'
p134
(dp135
g3
F0.856749348133187
sg4
F-0.5416472638835655
sg5
F1.096798368287844
sg6
F0.7178400169395386
sg7
F0.9974163050040741
sg8
F0.8071167153914794
sg9
F-0.43476534059333694
sg10
F0.24148878395789636
sg11
F1.0
sg12
F1.1610052678240586
sg13
F1.2264030666949453
sg14
F1.0426795429704354
sg15
F0.7477978826544927
ssS'SULLIVAN-SHAKLOVITZ COLLEEN'
p136
(dp137
g3
F0.5708880900076123
sg4
F2.096301407227588
sg5
F-0.4468494545206613
sg6
F0.2360403387652114
sg7
F-1.3213147625340265
sg8
F0.6608290517317992
sg9
F2.08680200615597
sg10
F-0.19554006661526097
sg11
F0.0
sg12
F1.0529016628559067
sg13
F-0.03933147416811105
sg14
F-0.16919953101609733
sg15
F0.7477978826544927
ssS'WROBEL BRUCE'
p138
(dp139
g3
F-1.3569417648407054
sg4
F-0.5416472638835655
sg5
F-1.0284311083917295
sg6
F-0.5897291426641602
sg7
F-1.3213147625340265
sg8
F0.10449119123265718
sg9
F-0.43476534059333694
sg10
F-1.178753094496733
sg11
F0.0
sg12
F-0.9567164716097402
sg13
F-0.03933147416811105
sg14
F-0.16919953101609733
sg15
F0.7477978826544927
ssS'LINDHOLM TOD A'
p140
(dp141
g3
F0.6989353331495374
sg4
F2.136293295907592
sg5
F0.10663375863450063
sg6
F0.6297385563796809
sg7
F0.8437899812494715
sg8
F0.8381657197346084
sg9
F2.3278064490727637
sg10
F0.327127099337488
sg11
F0.0
sg12
F0.9023219988421998
sg13
F-0.03933147416811105
sg14
F-0.16919953101609733
sg15
F0.7477978826544927
ssS'MEYER JEROME J'
p142
(dp143
g3
F-1.3569417648407054
sg4
F-0.5416472638835655
sg5
F-1.0284311083917295
sg6
F-1.9176209058014688
sg7
F-0.15286742463210187
sg8
F-1.3673275855282496
sg9
F-0.43476534059333694
sg10
F-1.178753094496733
sg11
F0.0
sg12
F-0.9567164716097402
sg13
F-0.03933147416811105
sg14
F-0.16919953101609733
sg15
F-1.2442790735569762
ssS'LAY KENNETH L'
p144
(dp145
g3
F1.2924699565518791
sg4
F2.169565368874212
sg5
F-0.6183420813032688
sg6
F2.5620793079310804
sg7
F1.055897614388832
sg8
F1.7110835628387793
sg9
F2.4344340458766593
sg10
F1.8255319120586966
sg11
F1.0
sg12
F1.2883585146358572
sg13
F1.4320652953946682
sg14
F1.7926410551647327
sg15
F-1.3807947560847909
ssS'BUTTS ROBERT H'
p146
(dp147
g3
F0.734655003803477
sg4
F-0.5416472638835655
sg5
F1.026455941080339
sg6
F-0.2374426383668223
sg7
F0.24135107559111044
sg8
F-1.3673275855282496
sg9
F-0.43476534059333694
sg10
F1.0703043332944973
sg11
F0.0
sg12
F0.9023219988421998
sg13
F-0.03933147416811105
sg14
F-0.16919953101609733
sg15
F-1.2935042968911845
ssS'OLSON CINDY K'
p148
(dp149
g3
F0.8180760811332464
sg4
F2.1553094210381953
sg5
F0.9868887434027617
sg6
F0.5461657634834592
sg7
F0.8813356493383726
sg8
F0.7116143686915204
sg9
F2.4344020746937662
sg10
F0.14133367008003725
sg11
F0.0
sg12
F0.8277058211223971
sg13
F0.11163605892381448
sg14
F1.449428310196451
sg15
F0.7477978826544927
ssS'MCDONALD REBECCA'
p150
(dp151
g3
F-1.3569417648407054
sg4
F-0.5416472638835655
sg5
F-1.0284311083917295
sg6
F0.3350956361753219
sg7
F-1.3213147625340265
sg8
F0.5048026104009079
sg9
F-0.43476534059333694
sg10
F-1.178753094496733
sg11
F0.0
sg12
F-0.9567164716097402
sg13
F-0.06773504677202336
sg14
F-0.0821340077980531
sg15
F0.7477978826544927
ssS'CUMBERLAND MICHAEL S'
p152
(dp153
g3
F0.6138266962386182
sg4
F-0.5416472638835655
sg5
F0.6347120989710531
sg6
F-0.4695982147415362
sg7
F0.5106398022345714
sg8
F-1.3673275855282496
sg9
F-0.43476534059333694
sg10
F0.08326924430445438
sg11
F0.0
sg12
F0.9618483694094835
sg13
F-0.03933147416811105
sg14
F-0.16919953101609733
sg15
F0.7477978826544927
ssS'GAHN ROBERT S'
p154
(dp155
g3
F0.6266899058057334
sg4
F1.4170139738902507
sg5
F0.9844264166996867
sg6
F-0.3313002716180264
sg7
F0.7912209421053868
sg8
F-0.0035955708136857006
sg9
F2.4343046668541604
sg10
F0.9474062518527353
sg11
F0.0
sg12
F-0.9567164716097402
sg13
F-0.03933147416811105
sg14
F-0.16919953101609733
sg15
F-0.8753710443643191
ssS'BADUM JAMES P'
p156
(dp157
g3
F-1.3569417648407054
sg4
F1.5674156251031348
sg5
F-1.0284311083917295
sg6
F-0.40135344391044947
sg7
F-0.032252861035385647
sg8
F0.2421367015877557
sg9
F-0.43476534059333694
sg10
F-1.178753094496733
sg11
F0.0
sg12
F-0.9567164716097402
sg13
F-0.03933147416811105
sg14
F-0.16919953101609733
sg15
F0.7477978826544927
ssS'HERMANN ROBERT J'
p158
(dp159
g3
F0.7362184892248419
sg4
F-0.5416472638835655
sg5
F0.9348510587980788
sg6
F-0.06222048218278774
sg7
F0.7784197380904883
sg8
F0.16996973999377848
sg9
F-0.43476534059333694
sg10
F1.2537933696649801
sg11
F0.0
sg12
F0.8818698721927565
sg13
F-0.03933147416811105
sg14
F-0.16919953101609733
sg15
F-1.3768665844871284
ssS'SCRIMSHAW MATTHEW'
p160
(dp161
g3
F-1.3569417648407054
sg4
F-0.5416472638835655
sg5
F-1.0284311083917295
sg6
F-0.011544546130741008
sg7
F-1.3213147625340265
sg8
F0.5055692045109664
sg9
F-0.43476534059333694
sg10
F-1.178753094496733
sg11
F0.0
sg12
F-0.9567164716097402
sg13
F-0.03933147416811105
sg14
F-0.16919953101609733
sg15
F0.7477978826544927
ssS'GATHMANN WILLIAM D'
p162
(dp163
g3
F-1.3569417648407054
sg4
F-0.5416472638835655
sg5
F-1.0284311083917295
sg6
F0.40142654682391155
sg7
F-1.3213147625340265
sg8
F0.7309124862111165
sg9
F-0.43476534059333694
sg10
F-1.178753094496733
sg11
F0.0
sg12
F-0.9567164716097402
sg13
F-0.03933147416811105
sg14
F-0.16919953101609733
sg15
F0.7477978826544927
ssS'HAEDICKE MARK E'
p164
(dp165
g3
F0.8658433474447084
sg4
F0.38651785219594387
sg5
F0.3428574380105339
sg6
F0.010876854894120052
sg7
F0.9492257020999056
sg8
F0.4491719107545737
sg9
F2.06844627038044
sg10
F0.8783053521674322
sg11
F0.0
sg12
F1.126169387454412
sg13
F1.0474481985334638
sg14
F-0.8283324994170272
sg15
F-1.4399617990741749
ssS'BOWEN JR RAYMOND M'
p166
(dp167
g3
F0.7573585367277039
sg4
F-0.5416472638835655
sg5
F0.8682140418860568
sg6
F-0.4086631944461537
sg7
F0.8937091386827939
sg8
F-1.3673275855282496
sg9
F-0.43476534059333694
sg10
F0.23693938490870767
sg11
F1.0
sg12
F1.124994935804442
sg13
F0.8482514727710384
sg14
F1.907497331415124
sg15
F-0.845232820407954
ssS'GILLIS JOHN'
p168
(dp169
g3
F-1.3569417648407054
sg4
F-0.5416472638835655
sg5
F-1.0284311083917295
sg6
F-0.7227945459095794
sg7
F-1.3213147625340265
sg8
F-0.39644072174456896
sg9
F-0.43476534059333694
sg10
F-1.178753094496733
sg11
F0.0
sg12
F-0.9567164716097402
sg13
F-0.03933147416811105
sg14
F-0.16919953101609733
sg15
F0.7477978826544927
ssS'FITZGERALD JAY L'
p170
(dp171
g3
F0.6392195965119714
sg4
F-0.5416472638835655
sg5
F0.17499669146217603
sg6
F0.31537283606830824
sg7
F0.5325023372133564
sg8
F0.47133057369942866
sg9
F-0.43476534059333694
sg10
F1.1857601962201476
sg11
F0.0
sg12
F1.0533638829945078
sg13
F-0.06354511232631736
sg14
F1.8583861725946536
sg15
F0.7477978826544927
ssS'MORAN MICHAEL P'
p172
(dp173
g3
F-1.3569417648407054
sg4
F-0.5416472638835655
sg5
F-1.0284311083917295
sg6
F-0.45035221140674253
sg7
F-1.3213147625340265
sg8
F-0.07104593474096622
sg9
F-0.43476534059333694
sg10
F-1.178753094496733
sg11
F0.0
sg12
F-0.9567164716097402
sg13
F-1.3920502048439969
sg14
F-1.5170300344281538
sg15
F0.7477978826544927
ssS'REDMOND BRIAN L'
p174
(dp175
g3
F0.4036703409758483
sg4
F-0.5416472638835655
sg5
F-1.0284311083917295
sg6
F1.175123916528628
sg7
F0.37618615590150095
sg8
F1.1723631414441686
sg9
F-0.43476534059333694
sg10
F-1.178753094496733
sg11
F0.0
sg12
F-0.9567164716097402
sg13
F0.35131254854141364
sg14
F1.1711515933055823
sg15
F0.7477978826544927
ssS'BAZELIDES PHILIP J'
p176
(dp177
g3
F0.3482623905505494
sg4
F1.814293243559192
sg5
F-1.0284311083917295
sg6
F0.3091613770527144
sg7
F-1.3213147625340265
sg8
F0.7051713526964737
sg9
F-0.43476534059333694
sg10
F0.12143109347019106
sg11
F0.0
sg12
F0.8190349369590791
sg13
F-0.03933147416811105
sg14
F-0.16919953101609733
sg15
F0.7477978826544927
ssS'BELDEN TIMOTHY N'
p178
(dp179
g3
F0.6640455644921893
sg4
F0.7113478071864964
sg5
F1.4982070677901762
sg6
F0.14626990097392029
sg7
F0.4287575651867229
sg8
F0.5647812818750012
sg9
F2.4270822376142713
sg10
F1.1309779733752916
sg11
F1.0
sg12
F-0.9567164716097402
sg13
F2.872065490176951
sg14
F1.1783826509821138
sg15
F-1.4808144518795632
ssS'DURAN WILLIAM D'
p180
(dp181
g3
F0.658644994624407
sg4
F-0.5416472638835655
sg5
F0.5195536910069829
sg6
F0.3209740306609164
sg7
F0.5582824327119708
sg8
F0.6783124343283538
sg9
F-0.43476534059333694
sg10
F0.23073427122025197
sg11
F0.0
sg12
F1.1409827717477063
sg13
F-0.24741563276792264
sg14
F1.303406702197576
sg15
F0.7477978826544927
ssS'THORN TERENCE H'
p182
(dp183
g3
F0.6769674173262327
sg4
F2.169818498820983
sg5
F-1.0284311083917295
sg6
F0.8781508107577826
sg7
F0.7613918586324853
sg8
F1.0059867690212507
sg9
F-0.43476534059333694
sg10
F1.258139844312752
sg11
F0.0
sg12
F0.9199764002755574
sg13
F-1.6755604163657183
sg14
F-1.5170300344281538
sg15
F0.7477978826544927
ssS'FASTOW ANDREW S'
p184
(dp185
g3
F0.9280926719977352
sg4
F-0.5416472638835655
sg5
F0.928670021237541
sg6
F0.36291349970244946
sg7
F0.8319459211468246
sg8
F-1.3673275855282496
sg9
F-0.43476534059333694
sg10
F1.1806661247443775
sg11
F1.0
sg12
F1.1978410531649781
sg13
F-0.03933147416811105
sg14
F-0.16919953101609733
sg15
F-1.4582430318722204
ssS'FOY JOE'
p186
(dp187
g3
F-1.3569417648407054
sg4
F1.7167362037669165
sg5
F-1.0284311083917295
sg6
F-0.3057689877986624
sg7
F-1.3213147625340265
sg8
F0.3091899494959358
sg9
F-0.43476534059333694
sg10
F-1.178753094496733
sg11
F0.0
sg12
F-0.9567164716097402
sg13
F-2.6034144348552832
sg14
F-1.5170300344281538
sg15
F0.7477978826544927
ssS'CALGER CHRISTOPHER F'
p188
(dp189
g3
F0.7044550754959739
sg4
F-0.5416472638835655
sg5
F1.2852237793438734
sg6
F-0.6178839763963068
sg7
F0.6710614851026697
sg8
F-1.3673275855282496
sg9
F-0.43476534059333694
sg10
F0.0113183386058999
sg11
F1.0
sg12
F1.0024231012193008
sg13
F1.2880031863743149
sg14
F0.882231998989756
sg15
F-1.373155010324583
ssS'RICE KENNETH D'
p190
(dp191
g3
F0.9102358398054011
sg4
F-0.5416472638835655
sg5
F2.276260197087871
sg6
F1.9106231854173406
sg7
F0.7676691390642736
sg8
F1.5058923893209104
sg9
F-0.43476534059333694
sg10
F1.0972490978401903
sg11
F1.0
sg12
F1.1889382571275207
sg13
F0.12157739828441547
sg14
F1.1737175131749897
sg15
F-1.4972192500239188
ssS'KAMINSKI WINCENTY J'
p192
(dp193
g3
F0.7528068298917306
sg4
F-0.5416472638835655
sg5
F0.546034698174863
sg6
F0.09127761652199984
sg7
F0.9854319073876008
sg8
F0.534740226536847
sg9
F-0.43476534059333694
sg10
F0.43372854225932733
sg11
F0.0
sg12
F0.9830666419366998
sg13
F-0.03933147416811105
sg14
F1.0227537973884289
sg15
F0.7477978826544927
ssS'LOCKHART EUGENE E'
p194
(dp195
g3
F-1.3569417648407054
sg4
F-0.5416472638835655
sg5
F-1.0284311083917295
sg6
F-1.9176209058014688
sg7
F-1.3213147625340265
sg8
F-1.3673275855282496
sg9
F-0.43476534059333694
sg10
F-1.178753094496733
sg11
F0.0
sg12
F-0.9567164716097402
sg13
F-0.03933147416811105
sg14
F-0.16919953101609733
sg15
F0.7477978826544927
ssS'COX DAVID'
p196
(dp197
g3
F0.801164863203663
sg4
F-0.5416472638835655
sg5
F1.2371869483812976
sg6
F-0.17543173011523303
sg7
F0.5844158886975621
sg8
F0.06839282390397124
sg9
F-0.43476534059333694
sg10
F0.014386151015427652
sg11
F0.0
sg12
F-0.9567164716097402
sg13
F-1.6884199966742914
sg14
F0.4407339257758529
sg15
F-1.2498792796952685
ssS'OVERDYKE JR JERE C'
p198
(dp199
g3
F0.3975336987150939
sg4
F-0.5416472638835655
sg5
F-1.0284311083917295
sg6
F1.1270418200182044
sg7
F0.45496206322198746
sg8
F1.0584594193954182
sg9
F-0.43476534059333694
sg10
F-0.17991326550092046
sg11
F0.0
sg12
F0.8686694094936271
sg13
F-0.03933147416811105
sg14
F-0.16919953101609733
sg15
F0.7477978826544927
ssS'PEREIRA PAULO V. FERRAZ'
p200
(dp201
g3
F-1.3569417648407054
sg4
F-0.5416472638835655
sg5
F-1.0284311083917295
sg6
F-1.9176209058014688
sg7
F0.5854008427887005
sg8
F-1.3673275855282496
sg9
F-0.43476534059333694
sg10
F-1.178753094496733
sg11
F0.0
sg12
F-0.9567164716097402
sg13
F-0.03933147416811105
sg14
F-0.16919953101609733
sg15
F-1.3139709099556325
ssS'STABLER FRANK'
p202
(dp203
g3
F0.7034445369039213
sg4
F-0.5416472638835655
sg5
F0.7476049287617138
sg6
F-0.16362550316485136
sg7
F0.41297928671195855
sg8
F-1.3673275855282496
sg9
F-0.43476534059333694
sg10
F1.2256121395228408
sg11
F0.0
sg12
F-0.9567164716097402
sg13
F-0.03933147416811105
sg14
F-0.16919953101609733
sg15
F0.7477978826544927
ssS'SKILLING JEFFREY K'
p204
(dp205
g3
F1.3080637507056005
sg4
F-0.5416472638835655
sg5
F1.1176818054635518
sg6
F2.0255921748066665
sg7
F0.6019748169889976
sg8
F1.4958233494523885
sg9
F-0.43476534059333694
sg10
F0.7206232399437509
sg11
F1.0
sg12
F1.2104364247166126
sg13
F1.1883048877975786
sg14
F1.4122868280753063
sg15
F0.7477978826544927
ssS'BLAKE JR. NORMAN P'
p206
(dp207
g3
F-1.3569417648407054
sg4
F-0.5416472638835655
sg5
F-1.0284311083917295
sg6
F-1.9176209058014688
sg7
F-0.2744060823958028
sg8
F-1.3673275855282496
sg9
F-0.43476534059333694
sg10
F-1.178753094496733
sg11
F0.0
sg12
F-0.9567164716097402
sg13
F-0.03933147416811105
sg14
F-0.16919953101609733
sg15
F-1.3216845579377505
ssS'SHERRICK JEFFREY B'
p208
(dp209
g3
F-1.3569417648407054
sg4
F-0.5416472638835655
sg5
F-1.0284311083917295
sg6
F0.3728620773571884
sg7
F-1.3213147625340265
sg8
F0.6734507488308366
sg9
F-0.43476534059333694
sg10
F-1.178753094496733
sg11
F0.0
sg12
F-0.9567164716097402
sg13
F-0.2729336693203168
sg14
F1.9937896570253275
sg15
F0.7477978826544927
ssS'CHAN RONNIE'
p210
(dp211
g3
F-1.3569417648407054
sg4
F-0.5416472638835655
sg5
F-1.0284311083917295
sg6
F-1.9176209058014688
sg7
F-1.3213147625340265
sg8
F-1.3673275855282496
sg9
F-0.43476534059333694
sg10
F-1.178753094496733
sg11
F0.0
sg12
F-0.9567164716097402
sg13
F-0.03933147416811105
sg14
F-0.16919953101609733
sg15
F-1.3123238895201808
ssS'GRAY RODNEY'
p212
(dp213
g3
F-0.2891528103120649
sg4
F-0.5416472638835655
sg5
F-1.0284311083917295
sg6
F-1.9176209058014688
sg7
F-1.3213147625340265
sg8
F-1.3673275855282496
sg9
F-0.43476534059333694
sg10
F1.3420522334915561
sg11
F0.0
sg12
F0.9990257309455671
sg13
F-0.03933147416811105
sg14
F-0.16919953101609733
sg15
F0.7477978826544927
ssS'PICKERING MARK R'
p214
(dp215
g3
F1.084847838974209
sg4
F-0.5416472638835655
sg5
F0.06194616457057726
sg6
F-0.9795137366275101
sg7
F0.6280676321791293
sg8
F-0.20943932304848822
sg9
F-0.43476534059333694
sg10
F-1.178753094496733
sg11
F0.0
sg12
F-0.9567164716097402
sg13
F-0.056587512125014026
sg14
F-1.5170300344281538
sg15
F0.7477978826544927
ssS'NOLES JAMES L'
p216
(dp217
g3
F-1.3569417648407054
sg4
F-0.5416472638835655
sg5
F-1.0284311083917295
sg6
F-0.2812642300371255
sg7
F-1.3213147625340265
sg8
F-1.3673275855282496
sg9
F-0.43476534059333694
sg10
F-1.178753094496733
sg11
F0.0
sg12
F-0.9567164716097402
sg13
F-0.03933147416811105
sg14
F-0.16919953101609733
sg15
F0.7477978826544927
ssS'KEAN STEVEN J'
p218
(dp219
g3
F0.8951827041439357
sg4
F-0.5416472638835655
sg5
F0.9954095153632788
sg6
F1.0219057609989555
sg7
F0.7270791036021357
sg8
F0.7712342116269495
sg9
F-0.43476534059333694
sg10
F0.1855286470238377
sg11
F0.0
sg12
F0.9732326312311628
sg13
F2.0978316043605685
sg14
F-0.37392656033299043
sg15
F0.7477978826544927
ssS'HUGHES JAMES A'
p220
(dp221
g3
F-1.3569417648407054
sg4
F-0.5416472638835655
sg5
F-1.0284311083917295
sg6
F0.14924427382843952
sg7
F-1.3213147625340265
sg8
F0.5040070138080838
sg9
F-0.43476534059333694
sg10
F-1.178753094496733
sg11
F0.0
sg12
F-0.9567164716097402
sg13
F-0.2633104686985825
sg14
F0.6783068672090139
sg15
F0.7477978826544927
ssS'FOWLER PEGGY'
p222
(dp223
g3
F-1.3569417648407054
sg4
F-0.5416472638835655
sg5
F-1.0284311083917295
sg6
F0.3862613320278473
sg7
F-1.3213147625340265
sg8
F0.6531341830356658
sg9
F-0.43476534059333694
sg10
F-1.178753094496733
sg11
F0.0
sg12
F-0.9567164716097402
sg13
F-2.3404219918063034
sg14
F-1.5170300344281538
sg15
F0.7477978826544927
ssS'WASAFF GEORGE'
p224
(dp225
g3
F0.7325739841432131
sg4
F1.7461386949182218
sg5
F0.3926314742835548
sg6
F0.428255177545144
sg7
F-1.3213147625340265
sg8
F0.7168945126306
sg9
F1.849609028127428
sg10
F0.21287677922426548
sg11
F0.0
sg12
F0.9199764002755574
sg13
F-0.7427031228126894
sg14
F1.2283613209552926
sg15
F-1.416640224740219
ssS'WHITE JR THOMAS E'
p226
(dp227
g3
F0.8049444539567491
sg4
F-0.5416472638835655
sg5
F0.1223292450382855
sg6
F1.6140776630797076
sg7
F0.9748385128277786
sg8
F0.6474048807379138
sg9
F-0.43476534059333694
sg10
F1.4255273427879895
sg11
F0.0
sg12
F-0.9567164716097402
sg13
F-0.03933147416811105
sg14
F-0.16919953101609733
sg15
F0.7477978826544927
ssS'CHRISTODOULOU DIOMEDES'
p228
(dp229
g3
F-1.3569417648407054
sg4
F-0.5416472638835655
sg5
F-1.0284311083917295
sg6
F1.0144634060437416
sg7
F-1.3213147625340265
sg8
F1.050013884220679
sg9
F-0.43476534059333694
sg10
F-1.178753094496733
sg11
F0.0
sg12
F-0.9567164716097402
sg13
F-0.03933147416811105
sg14
F-0.16919953101609733
sg15
F0.7477978826544927
ssS'ALLEN PHILLIP K'
p230
(dp231
g3
F0.6440185636559966
sg4
F0.9456722356692469
sg5
F1.4755936381850574
sg6
F0.3455563440020088
sg7
F0.3583233142835897
sg8
F0.7270043084900174
sg9
F2.39659566370454
sg10
F-0.20755298265254324
sg11
F0.0
sg12
F0.97530898316755
sg13
F0.6885174746405155
sg14
F-0.8637154465234754
sg15
F-1.492128297787473
ssS'SHARP VICTORIA T'
p232
(dp233
g3
F0.7159821081084192
sg4
F1.5911323089980671
sg5
F0.5792902200760697
sg6
F-0.17654503842915478
sg7
F1.1179323204865432
sg8
F0.26212250771319756
sg9
F2.431592426187955
sg10
F0.31017098947664046
sg11
F0.0
sg12
F1.0176931411041013
sg13
F1.4729906339537404
sg14
F-0.5940287851889842
sg15
F0.7477978826544927
ssS'JAEDICKE ROBERT'
p234
(dp235
g3
F-1.3569417648407054
sg4
F-0.5416472638835655
sg5
F-1.0284311083917295
sg6
F-0.225555341034892
sg7
F-1.3213147625340265
sg8
F0.36415786760210517
sg9
F-0.43476534059333694
sg10
F-1.178753094496733
sg11
F0.0
sg12
F-0.9567164716097402
sg13
F-0.03933147416811105
sg14
F-0.16919953101609733
sg15
F-1.2102002055030494
ssS'WINOKUR JR. HERBERT S'
p236
(dp237
g3
F-1.3569417648407054
sg4
F-0.5416472638835655
sg5
F-1.0284311083917295
sg6
F-1.9176209058014688
sg7
F-0.2517549492161971
sg8
F-1.3673275855282496
sg9
F-0.43476534059333694
sg10
F-1.178753094496733
sg11
F0.0
sg12
F-0.9567164716097402
sg13
F-0.03933147416811105
sg14
F-0.16919953101609733
sg15
F-1.2102002055030494
ssS'BROWN MICHAEL'
p238
(dp239
g3
F-1.3569417648407054
sg4
F-0.5416472638835655
sg5
F-1.0284311083917295
sg6
F-1.9176209058014688
sg7
F0.7853849726849562
sg8
F-1.3673275855282496
sg9
F-0.43476534059333694
sg10
F-1.178753094496733
sg11
F0.0
sg12
F-0.9567164716097402
sg13
F-0.011446253601588012
sg14
F-0.9683482254661335
sg15
F0.7477978826544927
ssS'MCCLELLAN GEORGE'
p240
(dp241
g3
F0.737237654352915
sg4
F-0.5416472638835655
sg5
F1.1748219281452807
sg6
F0.07900579022407911
sg7
F1.407587709486086
sg8
F0.403421892272751
sg9
F-0.43476534059333694
sg10
F0.8755157920959943
sg11
F0.0
sg12
F-0.9567164716097402
sg13
F0.7432451676275544
sg14
F-1.5170300344281538
sg15
F-1.3278005365098513
ssS'CARTER REBECCA C'
p242
(dp243
g3
F0.7350549535497626
sg4
F-0.5416472638835655
sg5
F1.0908971064949677
sg6
F-1.9176209058014688
sg7
F-1.3213147625340265
sg8
F-1.3673275855282496
sg9
F-0.43476534059333694
sg10
F0.031111267615535183
sg11
F0.0
sg12
F0.788949785654668
sg13
F-1.1294871830736715
sg14
F1.821303916282538
sg15
F-1.3433742079031195
ssS'REYNOLDS LAWRENCE'
p244
(dp245
g3
F0.3313229437001122
sg4
F2.168424766649542
sg5
F0.1963617273603105
sg6
F0.8033944416082112
sg7
F0.20853187603619183
sg8
F0.9850634437672199
sg9
F2.4187462803584636
sg10
F1.1234063170130835
sg11
F0.0
sg12
F0.8872934653217438
sg13
F-0.03933147416811105
sg14
F-0.16919953101609733
sg15
F-1.3571151842014173
ssS'DIMICHELE RICHARD G'
p246
(dp247
g3
F0.7363885234196496
sg4
F-0.5416472638835655
sg5
F0.683771445451707
sg6
F1.2086071391345754
sg7
F0.6710027440386457
sg8
F1.2009530743708616
sg9
F-0.43476534059333694
sg10
F1.2347862875065951
sg11
F0.0
sg12
F1.0818929119627707
sg13
F-0.03933147416811105
sg14
F-0.16919953101609733
sg15
F0.7477978826544927
ssS'BHATNAGAR SANJAY'
p248
(dp249
g3
F-1.3569417648407054
sg4
F-0.5416472638835655
sg5
F-1.0284311083917295
sg6
F1.6287351327856672
sg7
F1.1882485879078548
sg8
F1.4175527569083135
sg9
F-0.43476534059333694
sg10
F-1.178753094496733
sg11
F0.0
sg12
F-0.9567164716097402
sg13
F-0.48102240671807867
sg14
F-0.7698369108787503
sg15
F0.7477978826544927
ssS'BUCHANAN HAROLD G'
p250
(dp251
g3
F0.7157977771543824
sg4
F-0.5416472638835655
sg5
F0.8019060924943465
sg6
F0.10757956650236528
sg7
F-0.43704098016386167
sg8
F0.5271101356475854
sg9
F-0.43476534059333694
sg10
F0.1830826388024325
sg11
F0.0
sg12
F0.97530898316755
sg13
F-2.118077020477615
sg14
F-1.5170300344281538
sg15
F0.7477978826544927
ssS'YEAP SOON'
p252
(dp253
g3
F-1.3569417648407054
sg4
F-0.5416472638835655
sg5
F-1.0284311083917295
sg6
F-0.49298889896909476
sg7
F0.8264313121323659
sg8
F0.17614257755249274
sg9
F-0.43476534059333694
sg10
F-1.178753094496733
sg11
F0.0
sg12
F-0.9567164716097402
sg13
F-0.03933147416811105
sg14
F-0.16919953101609733
sg15
F0.7477978826544927
ssS'MURRAY JULIA H'
p254
(dp255
g3
F0.6881128461508084
sg4
F-0.5416472638835655
sg5
F0.8410042787906449
sg6
F-0.10537359449082428
sg7
F0.8428380477419309
sg8
F0.3459540757480738
sg9
F-0.43476534059333694
sg10
F-0.06148584015300653
sg11
F0.0
sg12
F0.8575806963039971
sg13
F-0.6153647207986904
sg14
F-0.5882872562444733
sg15
F0.7477978826544927
ssS'GARLAND C KEVIN'
p256
(dp257
g3
F0.6921627002187185
sg4
F-0.5416472638835655
sg5
F0.9407602258749576
sg6
F0.055699363987435954
sg7
F0.778781682364333
sg8
F0.4603255694401055
sg9
F-0.43476534059333694
sg10
F0.9055152194861161
sg11
F0.0
sg12
F1.0024231012193008
sg13
F-1.1911449914606713
sg14
F1.9460233696066145
sg15
F0.7477978826544927
ssS'DODSON KEITH'
p258
(dp259
g3
F0.6752510559416638
sg4
F-0.5416472638835655
sg5
F0.07116780099741776
sg6
F-1.9176209058014688
sg7
F0.5880876954850784
sg8
F-1.3673275855282496
sg9
F-0.43476534059333694
sg10
F0.0986611380089479
sg11
F0.0
sg12
F-0.9567164716097402
sg13
F-1.4516139486005455
sg14
F1.1322250910863543
sg15
F0.7477978826544927
ssS'YEAGER F SCOTT'
p260
(dp261
g3
F0.5618047301576125
sg4
F-0.5416472638835655
sg5
F-1.0284311083917295
sg6
F1.4443602460908171
sg7
F0.8186140198028056
sg8
F1.2056288071936634
sg9
F-0.43476534059333694
sg10
F1.0670219068178264
sg11
F1.0
sg12
F-0.9567164716097402
sg13
F-0.03933147416811105
sg14
F-0.16919953101609733
sg15
F0.7477978826544927
ssS'HIRKO JOSEPH'
p262
(dp263
g3
F-1.3569417648407054
sg4
F2.170031543807397
sg5
F-1.0284311083917295
sg6
F2.159031003118485
sg7
F0.9583308267522003
sg8
F1.6691339976935156
sg9
F-0.43476534059333694
sg10
F0.34246272786841336
sg11
F1.0
sg12
F-0.9567164716097402
sg13
F-0.03933147416811105
sg14
F-0.16919953101609733
sg15
F0.7477978826544927
ssS'DIETRICH JANET R'
p264
(dp265
g3
F0.7187642096265923
sg4
F-0.5416472638835655
sg5
F0.6912410135671103
sg6
F0.3812577852281637
sg7
F-0.03306766118069895
sg8
F0.6964095677781866
sg9
F-0.43476534059333694
sg10
F0.006223256804838862
sg11
F0.0
sg12
F1.0533638829945078
sg13
F1.0881413235186836
sg14
F1.1737175131749897
sg15
F0.7477978826544927
ssS'DERRICK JR. JAMES V'
p266
(dp267
g3
F0.9710654277190509
sg4
F-0.5416472638835655
sg5
F1.842252178037708
sg6
F1.2470915604868005
sg7
F0.7987925913790692
sg8
F1.2258830217074717
sg9
F-0.43476534059333694
sg10
F0.5210098352208274
sg11
F0.0
sg12
F1.0353824657398185
sg13
F0.6831366764181558
sg14
F-1.0176074497308292
sg15
F-1.4547804479681326
ssS'FREVERT MARK A'
p268
(dp269
g3
F1.2878169389724163
sg4
F1.6365402176332735
sg5
F-0.36829719056365845
sg6
F1.5890180004700674
sg7
F1.0011151721002303
sg8
F1.2817977655551955
sg9
F1.6570358606514364
sg10
F1.7669211888471525
sg11
F0.0
sg12
F1.1889382571275207
sg13
F1.7627454185028346
sg14
F1.440108611531975
sg15
F-1.4956484333176145
ssS'PAI LOU L'
p270
(dp271
g3
F0.7351504478158385
sg4
F-0.5416472638835655
sg5
F0.41054301074373845
sg6
F1.9534908787030438
sg7
F0.6323386217024303
sg8
F1.4154458947057846
sg9
F-0.43476534059333694
sg10
F1.518633494700653
sg11
F0.0
sg12
F-0.9567164716097402
sg13
F-0.03933147416811105
sg14
F-0.16919953101609733
sg15
F0.7477978826544927
ssS'BAY FRANKLIN R'
p272
(dp273
g3
F0.7036933570057061
sg4
F-0.5416472638835655
sg5
F0.8215762331552102
sg6
F-0.8006604955975941
sg7
F1.1609940283706286
sg8
F-1.3673275855282496
sg9
F2.4020716338861927
sg10
F-0.3563464946956098
sg11
F0.0
sg12
F-0.9567164716097402
sg13
F-0.03933147416811105
sg14
F-0.16919953101609733
sg15
F-1.357606779868576
ssS'MCCARTY DANNY J'
p274
(dp275
g3
F-1.3569417648407054
sg4
F-0.5416472638835655
sg5
F-1.0284311083917295
sg6
F-0.011874399350549429
sg7
F-1.3213147625340265
sg8
F0.47129767152630864
sg9
F-0.43476534059333694
sg10
F-1.178753094496733
sg11
F0.0
sg12
F-0.9567164716097402
sg13
F-0.39919980691397666
sg14
F-1.295398898704852
sg15
F0.7477978826544927
ssS'FUGH JOHN L'
p276
(dp277
g3
F-1.3569417648407054
sg4
F1.9541146906819145
sg5
F-1.0284311083917295
sg6
F-0.5199519912125508
sg7
F-1.3213147625340265
sg8
F0.1563843045537149
sg9
F-0.43476534059333694
sg10
F-1.178753094496733
sg11
F0.0
sg12
F-0.9567164716097402
sg13
F-0.03933147416811105
sg14
F-0.16919953101609733
sg15
F0.7477978826544927
ssS'FALLON JAMES B'
p278
(dp279
g3
F0.7896987925782711
sg4
F-0.5416472638835655
sg5
F1.171225527698633
sg6
F0.49018996231692613
sg7
F1.0399118333971944
sg8
F0.5611934952590588
sg9
F-0.43476534059333694
sg10
F1.2472130267736337
sg11
F0.0
sg12
F1.0020912125158021
sg13
F0.8573001052451971
sg14
F1.8514836151337875
sg15
F0.7477978826544927
ssS'KOENIG MARK E'
p280
(dp281
g3
F0.796070428034548
sg4
F-0.5416472638835655
sg5
F0.7278114801859352
sg6
F0.3951421137572938
sg7
F1.1541122324953281
sg8
F0.47410052683675574
sg9
F-0.43476534059333694
sg10
F1.0700661762870867
sg11
F1.0
sg12
F0.9732326312311628
sg13
F1.34271747827431
sg14
F1.285680177876406
sg15
F0.7477978826544927
ssS'SAVAGE FRANK'
p282
(dp283
g3
F-1.3569417648407054
sg4
F-0.5416472638835655
sg5
F-1.0284311083917295
sg6
F-1.9176209058014688
sg7
F-1.3213147625340265
sg8
F-1.3673275855282496
sg9
F-0.43476534059333694
sg10
F-1.178753094496733
sg11
F0.0
sg12
F-0.9567164716097402
sg13
F-0.03933147416811105
sg14
F-0.16919953101609733
sg15
F-1.3258466388164405
ssS'IZZO LAWRENCE L'
p284
(dp285
g3
F0.36455681220085556
sg4
F-0.5416472638835655
sg5
F-1.0284311083917295
sg6
F0.9885536592206711
sg7
F0.5872303927208529
sg8
F0.7908197111222682
sg9
F-0.43476534059333694
sg10
F1.4895318851862114
sg11
F0.0
sg12
F0.9785653172538278
sg13
F-0.5307328066292429
sg14
F1.357330953235009
sg15
F0.7477978826544927
ssS'TILNEY ELIZABETH A'
p286
(dp287
g3
F0.7148261801215201
sg4
F-0.5416472638835655
sg5
F1.270416864212875
sg6
F0.16806324273528436
sg7
F-1.3213147625340265
sg8
F0.4418356093281259
sg9
F-0.43476534059333694
sg10
F1.0719781430270012
sg11
F0.0
sg12
F0.9618483694094835
sg13
F-0.649177929606419
sg14
F1.9243618653040662
sg15
F-1.415902594053512
ssS'MARTIN AMANDA K'
p288
(dp289
g3
F0.8403713600245731
sg4
F2.158291474973761
sg5
F-1.0284311083917295
sg6
F0.431525133924983
sg7
F0.20164112979721405
sg8
F0.7779730187435226
sg9
F-0.43476534059333694
sg10
F1.5954655521380552
sg11
F0.0
sg12
F1.3321045102729705
sg13
F-0.45502075090239197
sg14
F-1.5170300344281538
sg15
F0.7477978826544927
ssS'BUY RICHARD B'
p290
(dp291
g3
F0.8197188181584693
sg4
F1.9848710310176896
sg5
F0.5831165135551585
sg6
F0.6918697459357595
sg7
F-1.3213147625340265
sg8
F0.837414024282443
sg9
F2.390991712639083
sg10
F1.2468052723031187
sg11
F0.0
sg12
F1.0950011429679798
sg13
F1.3827255929294353
sg14
F-0.217764308313943
sg15
F-1.4254923576176837
ssS'GRAMM WENDY L'
p292
(dp293
g3
F-1.3569417648407054
sg4
F-0.5416472638835655
sg5
F-1.0284311083917295
sg6
F-1.9176209058014688
sg7
F-1.3213147625340265
sg8
F-1.3673275855282496
sg9
F-0.43476534059333694
sg10
F-1.178753094496733
sg11
F0.0
sg12
F-0.9567164716097402
sg13
F-0.03933147416811105
sg14
F-0.16919953101609733
sg15
F0.7477978826544927
ssS'CAUSEY RICHARD A'
p294
(dp295
g3
F0.9052614703921766
sg4
F-0.5416472638835655
sg5
F0.9264207847909446
sg6
F0.5253912812461491
sg7
F0.617251924121976
sg8
F-1.3673275855282496
sg9
F-0.43476534059333694
sg10
F1.1994271705838169
sg11
F1.0
sg12
F0.9933419476112202
sg13
F0.841644491931039
sg14
F1.2812686685420824
sg15
F-1.3667063928611347
ssS'TAYLOR MITCHELL S'
p296
(dp297
g3
F0.7396748737191263
sg4
F2.1417691362443723
sg5
F0.9530054498801186
sg6
F0.7371827715682854
sg7
F-1.3213147625340265
sg8
F0.9036460253086542
sg9
F2.4287513767462965
sg10
F-1.178753094496733
sg11
F0.0
sg12
F-0.9567164716097402
sg13
F-0.8317451470550516
sg14
F-1.5170300344281538
sg15
F0.7477978826544927
ssS'DONAHUE JR JEFFREY M'
p298
(dp299
g3
F0.7573585367277039
sg4
F-0.5416472638835655
sg5
F1.458052257904361
sg6
F0.1346161514220681
sg7
F1.0413414485241486
sg8
F0.5077204263240317
sg9
F-0.43476534059333694
sg10
F0.12503963486837427
sg11
F0.0
sg12
F-0.9567164716097402
sg13
F0.0033109494150513983
sg14
F1.8583861725946536
sg15
F-1.3807947560847909
ssS'GLISAN JR BEN F'
p300
(dp301
g3
F0.752642043368266
sg4
F-0.5416472638835655
sg5
F0.7964745403311414
sg6
F-0.0016413148850940881
sg7
F1.1507109835449754
sg8
F0.3362981053342696
sg9
F-0.43476534059333694
sg10
F1.1218395362609082
sg11
F1.0
sg12
F0.7815790849706366
sg13
F0.13391832380592333
sg14
F1.676696193617044
sg15
F0.7477978826544927
ss.