ccopy_reg
_reconstructor
p0
(chelper
flex_classifier
p1
c__builtin__
object
p2
Ntp3
Rp4
(dp5
S'feasibiliy'
p6
I01
sS'min_precision'
p7
F0.35
sS'maximize'
p8
S'recall'
p9
sS'threshold'
p10
cnumpy.core.multiarray
scalar
p11
(cnumpy
dtype
p12
(S'f8'
p13
I0
I1
tp14
Rp15
(I3
S'<'
p16
NNNI-1
I-1
I0
tp17
bS'\xe3{Ne\xcc\xd63\xc0'
p18
tp19
Rp20
sS'method'
p21
S'decision_function'
p22
sS'min_recall'
p23
F0.4
sS'classifier'
p24
g0
(csklearn.linear_model.stochastic_gradient
SGDClassifier
p25
g2
Ntp26
Rp27
(dp28
S't_'
p29
F501.0
sS'n_jobs'
p30
NsS'shuffle'
p31
I01
sS'verbose'
p32
I0
sS'classes_'
p33
cnumpy.core.multiarray
_reconstruct
p34
(cnumpy
ndarray
p35
(I0
tp36
S'b'
p37
tp38
Rp39
(I1
(L2L
tp40
g12
(S'u1'
p41
I0
I1
tp42
Rp43
(I3
S'|'
p44
NNNI-1
I-1
I0
tp45
bI00
S'\x00\x01'
p46
tp47
bsS'_tol'
p48
NsS'class_weight'
p49
NsS'n_iter_no_change'
p50
I5
sS'fit_intercept'
p51
I01
sS'n_iter_'
p52
I5
sS'penalty'
p53
S'l1'
p54
sS'random_state'
p55
I77
sS'_sklearn_version'
p56
S'0.20.3'
p57
sS'_expanded_class_weight'
p58
g34
(g35
(I0
tp59
g37
tp60
Rp61
(I1
(L2L
tp62
g15
I00
S'\x00\x00\x00\x00\x00\x00\xf0?\x00\x00\x00\x00\x00\x00\xf0?'
p63
tp64
bsS'tol'
p65
NsS'validation_fraction'
p66
F0.1
sS'C'
p67
F1.0
sS'n_iter'
p68
NsS'epsilon'
p69
F0.1
sS'learning_rate'
p70
S'optimal'
p71
sS'max_iter'
p72
NsS'coef_'
p73
g34
(g35
(I0
tp74
g37
tp75
Rp76
(I1
(L1L
L12L
tp77
g15
I00
S'\xfcn\x8c\x01U+;\xc0t\x08\xfb@\x9e=1@>\x95:\x99\xb46%\xc0\xae&\x80\xd3\xbd\xd4+@\xbe\xee\x84"-\xabJ@rsK\x840W;\xc0\xe6W1A\x8b\xceD@afD\x93T\xe4/@\xfa\xce\x7f\xc0\x7f\xee:\xc0\xd0\xfb\xeb&\xeat-@\xe9\xbb\xdf\xa4fN1@\xecM\xc6\xdc\x95\xbeA@'
p78
tp79
bsS'alpha'
p80
g11
(g15
S'\xa1\x86\xd5\xd1\xaa\xb8\x1f?'
p81
tp82
Rp83
sS'intercept_'
p84
g34
(g35
(I0
tp85
g37
tp86
Rp87
(I1
(L1L
tp88
g15
I00
S'j\x9c\xbcoH\xf4Y\xc0'
p89
tp90
bsS'_max_iter'
p91
I5
sS'early_stopping'
p92
I00
sS'warm_start'
p93
I00
sS'loss'
p94
S'hinge'
p95
sS'eta0'
p96
F0.0
sS'l1_ratio'
p97
F0.15
sS'average'
p98
I00
sS'power_t'
p99
F0.5
sS'loss_function_'
p100
csklearn.linear_model.sgd_fast
Hinge
p101
(F1.0
tp102
Rp103
sbsb.