(dp0
S'METTS MARK'
p1
(dp2
S'salary'
p3
F0.8573897334238753
sS'total_payments'
p4
F0.34745510038548005
sS'bonus'
p5
F0.8201437640162034
sS'toPOI_rate'
p6
F-0.7698369108787503
sS'bonus_total_payments_rate'
p7
F0.9824450530172504
sS'total_stock_value'
p8
F-0.11336417205850076
sS'expenses'
p9
F1.0330977891327136
sS'other'
p10
F0.2501586891822855
sS'long_term_incentive_total_payments_rate'
p11
F-0.867074873478209
sS'poi'
p12
F0.0
sS'long_term_incentive'
p13
F-0.9567164716097402
sS'restricted_stock'
p14
F0.4594481657464155
sS'deferred_income'
p15
F0.7477978826544927
ssS'BAXTER JOHN C'
p16
(dp17
g3
F0.7422146199084926
sg4
F1.224278448242245
sg5
F0.9543678243844236
sg6
F-0.16919953101609733
sg7
F0.0491889587247861
sg8
F1.368455388130901
sg9
F0.2931362744113618
sg10
F1.585211957673452
sg11
F0.9765924959614384
sg12
F0.0
sg13
F1.1865130464217295
sg14
F1.3692284059742714
sg15
F-1.4582430318722204
ssS'ELLIOTT STEVEN'
p18
(dp19
g3
F0.5872840353806875
sg4
F1.0715568755042382
sg5
F-0.9567164716097402
sg6
F-0.16919953101609733
sg7
F1.931066903239839
sg8
F-0.43476534059333694
sg9
F1.0351856558982446
sg10
F0.9611815854048836
sg11
F-0.5416472638835655
sg12
F0.0
sg13
F-1.3968414049063556
sg14
F-0.03933147416811105
sg15
F0.6223624143867823
ssS'CORDES WILLIAM R'
p20
(dp21
g3
F-1.3569417648407054
sg4
F-1.8694304739818404
sg5
F-1.1180015626139308
sg6
F-1.5170300344281538
sg7
F-1.0284311083917295
sg8
F0.11736875853892914
sg9
F-1.3213147625340265
sg10
F-1.178753094496733
sg11
F-0.867074873478209
sg12
F0.0
sg13
F-0.9567164716097402
sg14
F0.2983681090052997
sg15
F0.7477978826544927
ssS'HANNON KEVIN P'
p22
(dp23
g3
F0.7089901827631105
sg4
F-0.17013963265196103
sg5
F0.9984279381674119
sg6
F1.9680813576169247
sg7
F2.3709882076499635
sg8
F1.0447619773245476
sg9
F0.6532585116215225
sg10
F0.597913264176756
sg11
F2.1483573790701067
sg12
F1.0
sg13
F1.1889382571275207
sg14
F0.6162249906917231
sg15
F-1.4925911440655177
ssS'MORDAUNT KRISTINA M'
p24
(dp25
g3
F0.7422025496745044
sg4
F-0.46874716244001763
sg5
F-0.9567164716097402
sg6
F-0.16919953101609733
sg7
F0.8911388485869313
sg8
F-0.43476534059333694
sg9
F-1.3673275855282496
sg10
F0.6631529109582832
sg11
F-0.5416472638835655
sg12
F0.0
sg13
F0.7477978826544927
sg14
F-0.03933147416811105
sg15
F0.21103250395595644
ssS'MEYER ROCKFORD G'
p26
(dp27
g3
F-1.3569417648407054
sg4
F0.608905145476922
sg5
F-1.1180015626139308
sg6
F-1.5170300344281538
sg7
F-1.0284311083917295
sg8
F0.08252490951314584
sg9
F-1.3213147625340265
sg10
F-1.178753094496733
sg11
F-0.867074873478209
sg12
F0.0
sg13
F-0.9567164716097402
sg14
F0.36669071687279137
sg15
F0.7477978826544927
ssS'MCMAHON JEFFREY'
p28
(dp29
g3
F0.8621350573144981
sg4
F0.3271583484006931
sg5
F1.0818929119627707
sg6
F1.896500243402099
sg7
F1.1005513544982486
sg8
F-0.43476534059333694
sg9
F0.6038702929879715
sg10
F1.1859464248404972
sg11
F-0.5416472638835655
sg12
F0.0
sg13
F0.7477978826544927
sg14
F1.3145408902840352
sg15
F1.1931479923616382
ssS'HORTON STANLEY C'
p30
(dp31
g3
F-1.3569417648407054
sg4
F1.122693077598875
sg5
F-0.9567164716097402
sg6
F-1.189898769049783
sg7
F-1.0284311083917295
sg8
F-0.43476534059333694
sg9
F1.0550910378544038
sg10
F-1.3213147625340265
sg11
F1.6500889339849822
sg12
F0.0
sg13
F0.7477978826544927
sg14
F0.36314344950372085
sg15
F-1.178753094496733
ssS'PIPER GREGORY F'
p32
(dp33
g3
F0.6356388259720084
sg4
F0.5784396138601725
sg5
F0.7434443614953254
sg6
F1.142514525621479
sg7
F0.11344661282204485
sg8
F0.04833251606442156
sg9
F0.7363946893613236
sg10
F0.09962740036843269
sg11
F-0.867074873478209
sg12
F0.0
sg13
F-0.9567164716097402
sg14
F0.3203262813441959
sg15
F-1.23335780780569
ssS'HUMPHREY GENE E'
p34
(dp35
g3
F0.4987729188058919
sg4
F0.8785810818630951
sg5
F-1.1180015626139308
sg6
F2.0497936821686946
sg7
F-1.0284311083917295
sg8
F0.4795034520465949
sg9
F0.06267983249892413
sg10
F-1.178753094496733
sg11
F-0.867074873478209
sg12
F0.0
sg13
F-0.9567164716097402
sg14
F-1.6276794545439914
sg15
F0.7477978826544927
ssS'UMANOFF ADAM S'
p36
(dp37
g3
F0.7700831026487311
sg4
F-1.9176209058014688
sg5
F-0.9567164716097402
sg6
F-1.5170300344281538
sg7
F1.1970430652811972
sg8
F-0.43476534059333694
sg9
F-1.3673275855282496
sg10
F0.8129163420840857
sg11
F-0.5416472638835655
sg12
F0.0
sg13
F0.7477978826544927
sg14
F-1.9188792409119824
sg15
F-1.178753094496733
ssS'BLACHMAN JEREMY M'
p38
(dp39
g3
F0.7165531544239442
sg4
F0.6521125474520494
sg5
F0.8870963143075477
sg6
F0.6425196471821752
sg7
F0.6828118158943395
sg8
F0.08185954668241359
sg9
F0.9883448944671779
sg10
F-0.09787909403159292
sg11
F1.3408070676942259
sg12
F0.0
sg13
F1.1048768797312574
sg14
F0.04674460655732755
sg15
F0.7477978826544927
ssS'SUNDE MARTIN'
p40
(dp41
g3
F0.7291145884339789
sg4
F0.5214085669862993
sg5
F0.8496526415711952
sg6
F1.6036261879239768
sg7
F0.7554194822207607
sg8
F-0.044563590143220595
sg9
F-1.3213147625340265
sg10
F1.0151285454220245
sg11
F1.0657625811432017
sg12
F0.0
sg13
F1.0333513332525397
sg14
F0.532094617967823
sg15
F0.7477978826544927
ssS'GIBBS DANA R'
p42
(dp43
g3
F-1.3569417648407054
sg4
F0.3057177208152456
sg5
F-1.1180015626139308
sg6
F-1.5170300344281538
sg7
F-1.0284311083917295
sg8
F0.46533378658688723
sg9
F-1.3213147625340265
sg10
F-1.178753094496733
sg11
F1.468354455646949
sg12
F0.0
sg13
F1.0293448723967347
sg14
F-1.6276794545439914
sg15
F0.7477978826544927
ssS'LOWRY CHARLES P'
p44
(dp45
g3
F-1.3569417648407054
sg4
F-1.8694304739818404
sg5
F-1.1180015626139308
sg6
F-0.16919953101609733
sg7
F-1.0284311083917295
sg8
F-0.2779778493865944
sg9
F-1.3213147625340265
sg10
F-1.178753094496733
sg11
F-0.867074873478209
sg12
F0.0
sg13
F-0.9567164716097402
sg14
F-0.020506626355795896
sg15
F0.7477978826544927
ssS'COLWELL WESLEY'
p46
(dp47
g3
F0.7700241166807278
sg4
F-0.04494561502242371
sg5
F-0.9567164716097402
sg6
F1.4022239918866852
sg7
F1.3383316371439906
sg8
F2.4344341100170284
sg9
F-1.3673275855282496
sg10
F0.41297928671195855
sg11
F-0.5416472638835655
sg12
F1.0
sg13
F-1.3368718647672695
sg14
F0.42422672196473354
sg15
F0.9991169811822094
ssS'MULLER MARK S'
p48
(dp49
g3
F0.720963502282139
sg4
F0.8963142732772827
sg5
F0.9373003691893488
sg6
F-1.5170300344281538
sg7
F0.47840267314898216
sg8
F0.2536854208994574
sg9
F-1.3213147625340265
sg10
F0.13645505644076086
sg11
F1.5656631168959543
sg12
F0.0
sg13
F1.1970806192363368
sg14
F0.27264349718170583
sg15
F-1.427193044936674
ssS'JACKSON CHARLENE R'
p50
(dp51
g3
F0.7700441979362024
sg4
F0.0711544484623907
sg5
F0.656177742097334
sg6
F1.5966877095786742
sg7
F0.7565922937311418
sg8
F-0.02968836253877394
sg9
F0.2646221980424867
sg10
F0.3127888807585833
sg11
F-0.867074873478209
sg12
F0.0
sg13
F-0.9567164716097402
sg14
F0.4279230512548386
sg15
F0.7477978826544927
ssS'WESTFAHL RICHARD K'
p52
(dp53
g3
F0.2776751773152942
sg4
F0.20348556769329104
sg5
F-1.1180015626139308
sg6
F-0.16919953101609733
sg7
F-1.0284311083917295
sg8
F-0.2662353413975452
sg9
F0.8041211785915686
sg10
F1.247055687293251
sg11
F1.1491360435480875
sg12
F0.0
sg13
F0.9525610285779369
sg14
F0.2970047280584226
sg15
F-1.1366287617477533
ssS'WALTERS GARETH W'
p54
(dp55
g3
F-1.3569417648407054
sg4
F-0.5459880520838287
sg5
F-1.1180015626139308
sg6
F-0.16919953101609733
sg7
F-1.0284311083917295
sg8
F0.1141412373174499
sg9
F0.6506510902696915
sg10
F-1.178753094496733
sg11
F-0.867074873478209
sg12
F0.0
sg13
F-0.9567164716097402
sg14
F-1.6276794545439914
sg15
F0.7477978826544927
ssS'WALLS JR ROBERT H'
p56
(dp57
g3
F0.8483929456184166
sg4
F0.5954729212405778
sg5
F0.8870963143075477
sg6
F-1.5170300344281538
sg7
F0.7985377310018038
sg8
F0.9965884804280657
sg9
F0.7974390856298669
sg10
F-0.9638053822423138
sg11
F1.0409519914038812
sg12
F0.0
sg13
F1.0496860383129631
sg14
F0.8872059958337172
sg15
F0.7477978826544927
ssS'KITCHEN LOUISE'
p58
(dp59
g3
F0.7479948810989252
sg4
F0.9410505704877392
sg5
F1.1446959575530582
sg6
F0.348021309404057
sg7
F1.4369978782878459
sg8
F-0.1386780391923436
sg9
F0.10230032398940983
sg10
F0.9846008850106639
sg11
F-0.867074873478209
sg12
F0.0
sg13
F-0.9567164716097402
sg14
F0.36978487245890734
sg15
F0.7477978826544927
ssS'PRENTICE JAMES'
p60
(dp61
g3
F-1.3569417648407054
sg4
F0.14015847575795584
sg5
F-0.9567164716097402
sg6
F-0.16919953101609733
sg7
F-1.0284311083917295
sg8
F-0.43476534059333694
sg9
F0.5456463987531706
sg10
F-1.3213147625340265
sg11
F1.6178549645298126
sg12
F0.0
sg13
F0.7477978826544927
sg14
F-0.03933147416811105
sg15
F-1.178753094496733
ssS'BELFER ROBERT'
p62
(dp63
g3
F-1.3569417648407054
sg4
F-1.2346924580766352
sg5
F-1.1180015626139308
sg6
F-0.16919953101609733
sg7
F-1.0284311083917295
sg8
F-1.9176209058014688
sg9
F-0.04750704798332317
sg10
F-1.178753094496733
sg11
F-0.867074873478209
sg12
F0.0
sg13
F-0.9567164716097402
sg14
F-0.37862834749365193
sg15
F-1.314788247818095
ssS'SHANKMAN JEFFREY A'
p64
(dp65
g3
F0.7891256998719159
sg4
F0.43193125702011553
sg5
F1.0529016628559067
sg6
F-0.8374222504919624
sg7
F1.138248917041726
sg8
F-0.43476534059333694
sg9
F0.6764130918240985
sg10
F1.2994636557449353
sg11
F-0.5416472638835655
sg12
F0.0
sg13
F0.7477978826544927
sg14
F0.9581194646510977
sg15
F0.17935219041741374
ssS'WODRASKA JOHN'
p66
(dp67
g3
F-1.3569417648407054
sg4
F-0.31209019290417095
sg5
F-1.1180015626139308
sg6
F-0.16919953101609733
sg7
F-1.0284311083917295
sg8
F-1.9176209058014688
sg9
F-1.3213147625340265
sg10
F1.1118916346933598
sg11
F-0.867074873478209
sg12
F0.0
sg13
F-0.9567164716097402
sg14
F-1.6276794545439914
sg15
F0.7477978826544927
ssS'BERGSIEKER RICHARD P'
p68
(dp69
g3
F0.6193475884654469
sg4
F0.11752752744782485
sg5
F0.656177742097334
sg6
F-1.5170300344281538
sg7
F0.6390203113652502
sg8
F-0.06743651561771379
sg9
F0.8530560594043225
sg10
F1.2584291650662114
sg11
F1.0100400644969671
sg12
F0.0
sg13
F0.906234971711383
sg14
F0.5079737645537248
sg15
F-1.4071337640929553
ssS'URQUHART JOHN A'
p70
(dp71
g3
F-1.3569417648407054
sg4
F-0.2502066705315529
sg5
F-1.1180015626139308
sg6
F-0.16919953101609733
sg7
F-1.0284311083917295
sg8
F-1.9176209058014688
sg9
F1.407378246045697
sg10
F-1.178753094496733
sg11
F-0.867074873478209
sg12
F0.0
sg13
F-0.9567164716097402
sg14
F-1.6276794545439914
sg15
F-1.240811742316192
ssS'BIBI PHILIPPE A'
p72
(dp73
g3
F0.6634384031030105
sg4
F0.3757964551740144
sg5
F1.0004745573522342
sg6
F1.0519337707568468
sg7
F0.8323804324772857
sg8
F-0.43476534059333694
sg9
F0.680934197181163
sg10
F0.697043344778245
sg11
F-0.5416472638835655
sg12
F0.0
sg13
F0.7477978826544927
sg14
F0.6238363972537031
sg15
F1.2577427927222748
ssS'PIRO JIM'
p74
(dp75
g3
F-1.3569417648407054
sg4
F-1.8694304739818404
sg5
F-1.1180015626139308
sg6
F-0.2919466867886885
sg7
F-1.0284311083917295
sg8
F-0.8693469300815517
sg9
F-1.3213147625340265
sg10
F-1.178753094496733
sg11
F-0.867074873478209
sg12
F0.0
sg13
F-0.9567164716097402
sg14
F-0.36046146240900206
sg15
F0.7477978826544927
ssS'RIEKER PAULA H'
p76
(dp77
g3
F0.7174865413466792
sg4
F0.36295183870937436
sg5
F0.8496526415711952
sg6
F1.9286546888208278
sg7
F1.1048782730165574
sg8
F0.3948504375891122
sg9
F0.6453221660003654
sg10
F0.271408793952626
sg11
F-0.867074873478209
sg12
F1.0
sg13
F-0.9567164716097402
sg14
F0.18575838618164917
sg15
F-1.3131418834269075
ssS'WHALEY DAVID A'
p78
(dp79
g3
F-1.3569417648407054
sg4
F-1.8694304739818404
sg5
F-1.1180015626139308
sg6
F-0.16919953101609733
sg7
F-1.0284311083917295
sg8
F-0.6851210352959151
sg9
F-1.3213147625340265
sg10
F-1.178753094496733
sg11
F-0.867074873478209
sg12
F0.0
sg13
F-0.9567164716097402
sg14
F-1.6276794545439914
sg15
F0.7477978826544927
ssS'BECK SALLY W'
p80
(dp81
g3
F0.691229105854351
sg4
F-0.6178839763963068
sg5
F-0.9567164716097402
sg6
F0.07577265179958093
sg7
F1.2316812227786091
sg8
F-0.43476534059333694
sg9
F-1.3673275855282496
sg10
F0.6841039047956408
sg11
F-0.5416472638835655
sg12
F0.0
sg13
F0.7477978826544927
sg14
F1.5704551427210214
sg15
F0.039942030530775004
ssS'HAUG DAVID L'
p82
(dp83
g3
F-1.3569417648407054
sg4
F0.46511681729740756
sg5
F-0.9567164716097402
sg6
F1.6631715170589851
sg7
F-1.0284311083917295
sg8
F-0.43476534059333694
sg9
F-1.3673275855282496
sg10
F-0.4840183023778336
sg11
F-0.5416472638835655
sg12
F0.0
sg13
F0.7477978826544927
sg14
F-0.4661013528460014
sg15
F-1.178753094496733
ssS'ECHOLS JOHN B'
p84
(dp85
g3
F0.608915456104032
sg4
F0.8024286330108041
sg5
F0.61535354983347
sg6
F-0.16919953101609733
sg7
F-0.5817684406080251
sg8
F0.10525278205737686
sg9
F0.49844222692885554
sg10
F0.8830919863525313
sg11
F1.8481648648707991
sg12
F0.0
sg13
F1.2293649153094939
sg14
F0.31842868454237166
sg15
F0.7477978826544927
ssS'MENDELSOHN JOHN'
p86
(dp87
g3
F-1.3569417648407054
sg4
F-1.592041786541233
sg5
F-1.1180015626139308
sg6
F-0.16919953101609733
sg7
F-1.0284311083917295
sg8
F-1.9176209058014688
sg9
F-0.6976653873571192
sg10
F-1.178753094496733
sg11
F-0.867074873478209
sg12
F0.0
sg13
F-0.9567164716097402
sg14
F-1.6276794545439914
sg15
F-1.3155942013771327
ssS'HICKERSON GARY J'
p88
(dp89
g3
F0.6604428541655006
sg4
F0.6686619655670762
sg5
F1.0233254789168542
sg6
F-0.7219719240519604
sg7
F1.35193698272706
sg8
F-0.21786428852737352
sg9
F1.0519284709873598
sg10
F0.27006547054872754
sg11
F-0.5138097968035656
sg12
F0.0
sg13
F0.7781029456569091
sg14
F0.348563015859564
sg15
F0.7477978826544927
ssS'CLINE KENNETH W'
p90
(dp91
g3
F-1.3569417648407054
sg4
F-1.8694304739818404
sg5
F-1.1180015626139308
sg6
F-0.16919953101609733
sg7
F-1.0284311083917295
sg8
F-0.4981717817535711
sg9
F-1.3213147625340265
sg10
F-1.178753094496733
sg11
F-0.867074873478209
sg12
F0.0
sg13
F-0.9567164716097402
sg14
F0.5097379950443349
sg15
F0.7477978826544927
ssS'LEWIS RICHARD'
p92
(dp93
g3
F-1.3569417648407054
sg4
F-1.8694304739818404
sg5
F-1.1180015626139308
sg6
F-1.5170300344281538
sg7
F-1.0284311083917295
sg8
F0.03419306518676857
sg9
F-1.3213147625340265
sg10
F-1.178753094496733
sg11
F-0.867074873478209
sg12
F0.0
sg13
F-0.9567164716097402
sg14
F-1.6276794545439914
sg15
F0.7477978826544927
ssS'HAYES ROBERT E'
p94
(dp95
g3
F-1.3569417648407054
sg4
F-1.0883120896050722
sg5
F-1.1180015626139308
sg6
F-1.5170300344281538
sg7
F-1.0284311083917295
sg8
F-0.5652034648035961
sg9
F-1.3213147625340265
sg10
F-1.178753094496733
sg11
F-0.867074873478209
sg12
F0.0
sg13
F-0.9567164716097402
sg14
F-0.02524325475531579
sg15
F0.7477978826544927
ssS'KOPPER MICHAEL J'
p96
(dp97
g3
F0.6804284163904073
sg4
F0.7945231482106417
sg5
F0.8753713930646646
sg6
F-0.16919953101609733
sg7
F0.3540466473936161
sg8
F0.09513523928513908
sg9
F1.124216453321764
sg10
F1.3935129162009405
sg11
F0.7662686314085115
sg12
F1.0
sg13
F1.063634710903695
sg14
F0.6787774468316767
sg15
F0.7477978826544927
ssS'LEFF DANIEL P'
p98
(dp99
g3
F0.7510313120282448
sg4
F0.7968454529092456
sg5
F0.9186774983025119
sg6
F1.1737175131749897
sg7
F0.5654918232453331
sg8
F-0.289041176009462
sg9
F-1.3213147625340265
sg10
F0.3566828974322724
sg11
F1.5386665340379406
sg12
F0.0
sg13
F1.169691876135076
sg14
F0.27264349718170583
sg15
F0.7477978826544927
ssS'LAVORATO JOHN J'
p100
(dp101
g3
F0.8293736640637503
sg4
F1.6231245662012637
sg5
F1.3426496377488815
sg6
F0.7745272030750758
sg7
F1.2913960283911041
sg8
F0.9185736705501253
sg9
F0.7872284867202093
sg10
F0.22881950476309085
sg11
F0.6199395646245667
sg12
F0.0
sg13
F1.2177207923591016
sg14
F0.6890123113425204
sg15
F0.7477978826544927
ssS'BERBERIAN DAVID'
p102
(dp103
g3
F0.6682141799914624
sg4
F-0.25047423911603256
sg5
F-1.1180015626139308
sg6
F-0.16919953101609733
sg7
F-1.0284311083917295
sg8
F0.5236849125919809
sg9
F0.3112415901219281
sg10
F-1.178753094496733
sg11
F-0.867074873478209
sg12
F0.0
sg13
F-0.9567164716097402
sg14
F0.6242957551259752
sg15
F0.7477978826544927
ssS'DETMERING TIMOTHY J'
p104
(dp105
g3
F0.658329215055222
sg4
F0.40460320134211075
sg5
F0.7548283478212582
sg6
F-0.16919953101609733
sg7
F0.5044511491231022
sg8
F0.4214695369649414
sg9
F0.8068452071235773
sg10
F0.16533428250221152
sg11
F1.1741640063826366
sg12
F0.0
sg13
F1.0156812578586178
sg14
F0.2233711278004601
sg15
F-1.4309131820617396
ssS'WAKEHAM JOHN'
p106
(dp107
g3
F-1.3569417648407054
sg4
F-0.2737738570159981
sg5
F-1.1180015626139308
sg6
F-0.16919953101609733
sg7
F-1.0284311083917295
sg8
F-1.9176209058014688
sg9
F1.0714773592261442
sg10
F-1.178753094496733
sg11
F-0.867074873478209
sg12
F0.0
sg13
F-0.9567164716097402
sg14
F-1.6276794545439914
sg15
F0.7477978826544927
ssS'POWERS WILLIAM'
p108
(dp109
g3
F-1.3569417648407054
sg4
F-1.9176209058014688
sg5
F-0.9567164716097402
sg6
F-1.5170300344281538
sg7
F-1.0284311083917295
sg8
F-0.43476534059333694
sg9
F-1.3673275855282496
sg10
F-1.3213147625340265
sg11
F-0.5416472638835655
sg12
F0.0
sg13
F-1.1800641537274965
sg14
F-2.2975597516707595
sg15
F-1.178753094496733
ssS'GOLD JOSEPH'
p110
(dp111
g3
F0.7498925971907157
sg4
F0.04707784578401484
sg5
F0.97530898316755
sg6
F-0.16919953101609733
sg7
F0.49472746869509854
sg8
F-0.43476534059333694
sg9
F0.36682719937111385
sg10
F-1.3213147625340265
sg11
F-0.5416472638835655
sg12
F0.0
sg13
F0.7477978826544927
sg14
F-0.03933147416811105
sg15
F1.3752128021290229
ssS'BANNANTINE JAMES M'
p112
(dp113
g3
F-0.7548730159658464
sg4
F0.2823107661558233
sg5
F-1.1180015626139308
sg6
F-1.5170300344281538
sg7
F-1.0284311083917295
sg8
F0.9271128736568397
sg9
F0.8344653319307616
sg10
F1.3848319137773966
sg11
F-0.867074873478209
sg12
F0.0
sg13
F-0.9567164716097402
sg14
F0.9469720935211031
sg15
F-1.062623412421818
ssS'DUNCAN JOHN H'
p114
(dp115
g3
F-1.3569417648407054
sg4
F-0.27840366824024265
sg5
F-0.9567164716097402
sg6
F-0.16919953101609733
sg7
F-1.0284311083917295
sg8
F-0.43476534059333694
sg9
F0.3280716127543436
sg10
F-1.3213147625340265
sg11
F-0.5416472638835655
sg12
F0.0
sg13
F-1.2102002055030494
sg14
F-0.03933147416811105
sg15
F-1.178753094496733
ssS'SHAPIRO RICHARD S'
p116
(dp117
g3
F0.7448536265869256
sg4
F0.34564786958283467
sg5
F0.835442070661393
sg6
F-0.4347022549559471
sg7
F1.068623658134228
sg8
F0.09597588468680633
sg9
F1.1879538183666285
sg10
F0.08115303947670117
sg11
F-0.867074873478209
sg12
F0.0
sg13
F-0.9567164716097402
sg14
F0.29136608771647154
sg15
F0.7477978826544927
ssS'SHERRIFF JOHN R'
p118
(dp119
g3
F0.9175710163266442
sg4
F1.0678676667173195
sg5
F0.9984279381674119
sg6
F1.303406702197576
sg7
F0.4853557348906289
sg8
F0.6407451224692015
sg9
F-1.3213147625340265
sg10
F1.5208317716618638
sg11
F0.24187408103951166
sg12
F0.0
sg13
F1.0529016628559067
sg14
F0.8015895493462425
sg15
F0.7477978826544927
ssS'SHELBY REX'
p120
(dp121
g3
F0.660534500952537
sg4
F0.5236849125919809
sg5
F-0.9567164716097402
sg6
F1.6428339809811903
sg7
F-0.44815605189935365
sg8
F-0.43476534059333694
sg9
F0.7094516619686745
sg10
F0.5185204078780491
sg11
F-0.5416472638835655
sg12
F1.0
sg13
F-1.0411251498819367
sg14
F-1.5690810425208523
sg15
F1.4917656428652835
ssS'LEMAISTRE CHARLES'
p122
(dp123
g3
F-1.3569417648407054
sg4
F-0.5457247480665659
sg5
F-1.1180015626139308
sg6
F-0.16919953101609733
sg7
F-1.0284311083917295
sg8
F-0.2415034306116188
sg9
F-1.3213147625340265
sg10
F-1.178753094496733
sg11
F-0.867074873478209
sg12
F0.0
sg13
F-0.9567164716097402
sg14
F-1.6276794545439914
sg15
F-1.2102002055030494
ssS'DEFFNER JOSEPH M'
p124
(dp125
g3
F0.651059143872646
sg4
F0.40614839921967055
sg5
F0.8201437640162034
sg6
F-0.42560339934004177
sg7
F0.8491742052518455
sg8
F-0.5504682761592445
sg9
F0.7242790158163916
sg10
F0.7470622736454284
sg11
F0.962397295190688
sg12
F0.0
sg13
F0.9877712013631774
sg14
F-0.0459328468113152
sg15
F0.7477978826544927
ssS'KISHKILL JOSEPH G'
p126
(dp127
g3
F0.593732516190854
sg4
F0.17086879507401945
sg5
F-1.1180015626139308
sg6
F-0.16919953101609733
sg7
F-1.0284311083917295
sg8
F0.11579402801120488
sg9
F1.1179252796473313
sg10
F1.2737593373152838
sg11
F-0.867074873478209
sg12
F0.0
sg13
F-0.9567164716097402
sg14
F0.7003789666410234
sg15
F-1.265872830752863
ssS'WHALLEY LAWRENCE G'
p128
(dp129
g3
F0.9851174713152526
sg4
F1.11242232961996
sg5
F1.1379912496472746
sg6
F-0.6108385476416006
sg7
F1.1119939424432332
sg8
F1.014587007668695
sg9
F0.8445073946606639
sg10
F1.1953608454084024
sg11
F0.505579859748615
sg12
F0.0
sg13
F1.1012278640972535
sg14
F1.1823890499357985
sg15
F0.7477978826544927
ssS'HAYSLETT RODERICK J'
p130
(dp131
g3
F-1.3569417648407054
sg4
F-1.8694304739818404
sg5
F-1.1180015626139308
sg6
F-0.7447509766664148
sg7
F-1.0284311083917295
sg8
F-0.30255858949035636
sg9
F-1.3213147625340265
sg10
F-1.178753094496733
sg11
F-0.867074873478209
sg12
F0.0
sg13
F-0.9567164716097402
sg14
F0.2581879561276525
sg15
F0.7477978826544927
ssS'MCCONNELL MICHAEL S'
p132
(dp133
g3
F0.8566211581772698
sg4
F0.6734164080121471
sg5
F0.9373003691893488
sg6
F-0.16919953101609733
sg7
F0.9037696510768578
sg8
F0.6360604217199232
sg9
F0.9748913359108995
sg10
F0.031111267615535183
sg11
F0.9129212832574726
sg12
F0.0
sg13
F1.0529016628559067
sg14
F0.8639739358519783
sg15
F0.7477978826544927
ssS'DELAINEY DAVID W'
p134
(dp135
g3
F0.856749348133187
sg4
F1.1212588120584248
sg5
F1.1379912496472746
sg6
F1.0426795429704354
sg7
F1.096798368287844
sg8
F0.7178400169395386
sg9
F0.9974163050040741
sg10
F0.24148878395789636
sg11
F0.9455586019765996
sg12
F1.0
sg13
F1.1610052678240586
sg14
F0.812098894294697
sg15
F0.7477978826544927
ssS'SULLIVAN-SHAKLOVITZ COLLEEN'
p136
(dp137
g3
F0.5708880900076123
sg4
F0.2360403387652114
sg5
F1.0529016628559067
sg6
F-0.16919953101609733
sg7
F-0.4468494545206613
sg8
F2.08680200615597
sg9
F0.6608290517317992
sg10
F-1.3213147625340265
sg11
F2.096301407227588
sg12
F0.0
sg13
F0.7477978826544927
sg14
F-0.03933147416811105
sg15
F-0.19554006661526097
ssS'WROBEL BRUCE'
p138
(dp139
g3
F-1.3569417648407054
sg4
F-0.5897291426641602
sg5
F-0.9567164716097402
sg6
F-0.16919953101609733
sg7
F-1.0284311083917295
sg8
F-0.43476534059333694
sg9
F0.10449119123265718
sg10
F-1.3213147625340265
sg11
F-0.5416472638835655
sg12
F0.0
sg13
F0.7477978826544927
sg14
F-0.03933147416811105
sg15
F-1.178753094496733
ssS'LINDHOLM TOD A'
p140
(dp141
g3
F0.6989353331495374
sg4
F0.2627964579743176
sg5
F0.61535354983347
sg6
F-0.16919953101609733
sg7
F0.10663375863450063
sg8
F0.6297385563796809
sg9
F0.8437899812494715
sg10
F0.327127099337488
sg11
F0.6420170667470586
sg12
F0.0
sg13
F0.9023219988421998
sg14
F0.4085844769291391
sg15
F0.7477978826544927
ssS'MEYER JEROME J'
p142
(dp143
g3
F-1.3569417648407054
sg4
F-1.9176209058014688
sg5
F-0.9567164716097402
sg6
F-0.16919953101609733
sg7
F-1.0284311083917295
sg8
F-0.43476534059333694
sg9
F-1.3673275855282496
sg10
F-0.15286742463210187
sg11
F-0.5416472638835655
sg12
F0.0
sg13
F-1.2442790735569762
sg14
F-0.03933147416811105
sg15
F-1.178753094496733
ssS'LAY KENNETH L'
p144
(dp145
g3
F1.2924699565518791
sg4
F3.5901228570427506
sg5
F1.3142821350219933
sg6
F1.7926410551647327
sg7
F-0.6183420813032688
sg8
F2.5620793079310804
sg9
F1.055897614388832
sg10
F1.8255319120586966
sg11
F-0.4990318405121519
sg12
F1.0
sg13
F1.2883585146358572
sg14
F2.200203298309857
sg15
F-1.3807947560847909
ssS'BUTTS ROBERT H'
p146
(dp147
g3
F0.734655003803477
sg4
F0.42954176795965854
sg5
F0.8629227257044125
sg6
F-0.16919953101609733
sg7
F1.026455941080339
sg8
F-0.2374426383668223
sg9
F0.24135107559111044
sg10
F1.0703043332944973
sg11
F0.30333810649271475
sg12
F0.0
sg13
F0.9023219988421998
sg14
F0.3277127269315316
sg15
F-1.2935042968911845
ssS'OLSON CINDY K'
p148
(dp149
g3
F0.8180760811332464
sg4
F0.447456771903585
sg5
F0.8629227257044125
sg6
F1.449428310196451
sg7
F0.9868887434027617
sg8
F0.5461657634834592
sg9
F0.8813356493383726
sg10
F0.14133367008003725
sg11
F-0.1355117834012724
sg12
F0.0
sg13
F0.8277058211223971
sg14
F0.6718924184927103
sg15
F0.7477978826544927
ssS'MCDONALD REBECCA'
p150
(dp151
g3
F-1.3569417648407054
sg4
F-1.8694304739818404
sg5
F-1.1180015626139308
sg6
F-0.0821340077980531
sg7
F-1.0284311083917295
sg8
F0.3350956361753219
sg9
F-1.3213147625340265
sg10
F-1.178753094496733
sg11
F-0.867074873478209
sg12
F0.0
sg13
F-0.9567164716097402
sg14
F0.6554912808669029
sg15
F0.7477978826544927
ssS'CUMBERLAND MICHAEL S'
p152
(dp153
g3
F0.6138266962386182
sg4
F-0.4695982147415362
sg5
F0.9618483694094835
sg6
F-0.16919953101609733
sg7
F0.6347120989710531
sg8
F-0.43476534059333694
sg9
F-1.3673275855282496
sg10
F0.5106398022345714
sg11
F-0.5416472638835655
sg12
F0.0
sg13
F0.7477978826544927
sg14
F-0.03933147416811105
sg15
F0.08326924430445438
ssS'GAHN ROBERT S'
p154
(dp155
g3
F0.6266899058057334
sg4
F0.2748369742260869
sg5
F0.7891936529920558
sg6
F-0.16919953101609733
sg7
F0.9844264166996867
sg8
F-0.3313002716180264
sg9
F0.7912209421053868
sg10
F0.9474062518527353
sg11
F-0.867074873478209
sg12
F0.0
sg13
F-0.9567164716097402
sg14
F0.12062201424776085
sg15
F-0.8753710443643191
ssS'BADUM JAMES P'
p156
(dp157
g3
F-1.3569417648407054
sg4
F-0.40135344391044947
sg5
F-0.9567164716097402
sg6
F-0.16919953101609733
sg7
F-1.0284311083917295
sg8
F-0.43476534059333694
sg9
F0.2421367015877557
sg10
F-0.032252861035385647
sg11
F1.5674156251031348
sg12
F0.0
sg13
F0.7477978826544927
sg14
F-0.03933147416811105
sg15
F-1.178753094496733
ssS'HERMANN ROBERT J'
p158
(dp159
g3
F0.7362184892248419
sg4
F-0.06222048218278774
sg5
F0.8818698721927565
sg6
F-0.16919953101609733
sg7
F0.9348510587980788
sg8
F-0.43476534059333694
sg9
F0.16996973999377848
sg10
F0.7784197380904883
sg11
F-0.5416472638835655
sg12
F0.0
sg13
F-1.3768665844871284
sg14
F-0.03933147416811105
sg15
F1.2537933696649801
ssS'SCRIMSHAW MATTHEW'
p160
(dp161
g3
F-1.3569417648407054
sg4
F-0.011544546130741008
sg5
F-0.9567164716097402
sg6
F-0.16919953101609733
sg7
F-1.0284311083917295
sg8
F-0.43476534059333694
sg9
F0.5055692045109664
sg10
F-1.3213147625340265
sg11
F-0.5416472638835655
sg12
F0.0
sg13
F0.7477978826544927
sg14
F-0.03933147416811105
sg15
F-1.178753094496733
ssS'GATHMANN WILLIAM D'
p162
(dp163
g3
F-1.3569417648407054
sg4
F0.40142654682391155
sg5
F-0.9567164716097402
sg6
F-0.16919953101609733
sg7
F-1.0284311083917295
sg8
F-0.43476534059333694
sg9
F0.7309124862111165
sg10
F-1.3213147625340265
sg11
F-0.5416472638835655
sg12
F0.0
sg13
F0.7477978826544927
sg14
F-0.03933147416811105
sg15
F-1.178753094496733
ssS'HAEDICKE MARK E'
p164
(dp165
g3
F0.8658433474447084
sg4
F1.0008234408810825
sg5
F0.9460117720585818
sg6
F-0.8283324994170272
sg7
F0.3428574380105339
sg8
F0.010876854894120052
sg9
F0.9492257020999056
sg10
F0.8783053521674322
sg11
F0.8786969033593998
sg12
F0.0
sg13
F1.126169387454412
sg14
F0.4156556758957487
sg15
F-1.4399617990741749
ssS'BOWEN JR RAYMOND M'
p166
(dp167
g3
F0.7573585367277039
sg4
F-0.4086631944461537
sg5
F1.124994935804442
sg6
F1.907497331415124
sg7
F0.8682140418860568
sg8
F-0.43476534059333694
sg9
F-1.3673275855282496
sg10
F0.8937091386827939
sg11
F-0.5416472638835655
sg12
F1.0
sg13
F-0.845232820407954
sg14
F0.8482514727710384
sg15
F0.23693938490870767
ssS'GILLIS JOHN'
p168
(dp169
g3
F-1.3569417648407054
sg4
F-1.8694304739818404
sg5
F-1.1180015626139308
sg6
F-0.16919953101609733
sg7
F-1.0284311083917295
sg8
F-0.7227945459095794
sg9
F-1.3213147625340265
sg10
F-1.178753094496733
sg11
F-0.867074873478209
sg12
F0.0
sg13
F-0.9567164716097402
sg14
F-0.23256452100812935
sg15
F0.7477978826544927
ssS'FITZGERALD JAY L'
p170
(dp171
g3
F0.6392195965119714
sg4
F0.31537283606830824
sg5
F1.0533638829945078
sg6
F1.8583861725946536
sg7
F0.17499669146217603
sg8
F-0.43476534059333694
sg9
F0.47133057369942866
sg10
F0.5325023372133564
sg11
F-0.5416472638835655
sg12
F0.0
sg13
F0.7477978826544927
sg14
F-0.06354511232631736
sg15
F1.1857601962201476
ssS'MORAN MICHAEL P'
p172
(dp173
g3
F-1.3569417648407054
sg4
F-1.8694304739818404
sg5
F-1.1180015626139308
sg6
F-1.5170300344281538
sg7
F-1.0284311083917295
sg8
F-0.45035221140674253
sg9
F-1.3213147625340265
sg10
F-1.178753094496733
sg11
F-0.867074873478209
sg12
F0.0
sg13
F-0.9567164716097402
sg14
F-0.004414651265950821
sg15
F0.7477978826544927
ssS'REDMOND BRIAN L'
p174
(dp175
g3
F0.4036703409758483
sg4
F-0.4759867531319951
sg5
F-1.1180015626139308
sg6
F1.1711515933055823
sg7
F-1.0284311083917295
sg8
F1.175123916528628
sg9
F0.37618615590150095
sg10
F-1.178753094496733
sg11
F-0.867074873478209
sg12
F0.0
sg13
F-0.9567164716097402
sg14
F0.29344842682297145
sg15
F0.7477978826544927
ssS'BAZELIDES PHILIP J'
p176
(dp177
g3
F0.3482623905505494
sg4
F0.2549711083262464
sg5
F-1.1180015626139308
sg6
F-0.16919953101609733
sg7
F-1.0284311083917295
sg8
F0.3091613770527144
sg9
F-1.3213147625340265
sg10
F0.12143109347019106
sg11
F0.11514686615227372
sg12
F0.0
sg13
F0.8190349369590791
sg14
F-1.6276794545439914
sg15
F0.7477978826544927
ssS'BELDEN TIMOTHY N'
p178
(dp179
g3
F0.6640455644921893
sg4
F0.14626990097392029
sg5
F-0.9567164716097402
sg6
F1.1783826509821138
sg7
F1.4982070677901762
sg8
F2.4270822376142713
sg9
F0.5647812818750012
sg10
F0.4287575651867229
sg11
F0.7113478071864964
sg12
F1.0
sg13
F-1.4808144518795632
sg14
F2.872065490176951
sg15
F1.1309779733752916
ssS'DURAN WILLIAM D'
p180
(dp181
g3
F0.658644994624407
sg4
F0.6714524910552125
sg5
F0.8629227257044125
sg6
F1.303406702197576
sg7
F0.5195536910069829
sg8
F0.3209740306609164
sg9
F0.5582824327119708
sg10
F0.23073427122025197
sg11
F1.5496260680771154
sg12
F0.0
sg13
F1.1409827717477063
sg14
F0.04674460655732755
sg15
F0.7477978826544927
ssS'THORN TERENCE H'
p182
(dp183
g3
F0.6769674173262327
sg4
F0.8781508107577826
sg5
F0.9199764002755574
sg6
F-1.5170300344281538
sg7
F-1.0284311083917295
sg8
F-0.43476534059333694
sg9
F1.0059867690212507
sg10
F0.7613918586324853
sg11
F2.169818498820983
sg12
F0.0
sg13
F0.7477978826544927
sg14
F-1.6755604163657183
sg15
F1.258139844312752
ssS'FASTOW ANDREW S'
p184
(dp185
g3
F0.9280926719977352
sg4
F0.7470616126596045
sg5
F0.9701242883041774
sg6
F-0.16919953101609733
sg7
F0.928670021237541
sg8
F0.36291349970244946
sg9
F0.8319459211468246
sg10
F1.1806661247443775
sg11
F1.764363962292839
sg12
F1.0
sg13
F1.1978410531649781
sg14
F0.957095207195088
sg15
F-1.4582430318722204
ssS'FOY JOE'
p186
(dp187
g3
F-1.3569417648407054
sg4
F-0.3057689877986624
sg5
F-0.9567164716097402
sg6
F-1.5170300344281538
sg7
F-1.0284311083917295
sg8
F-0.43476534059333694
sg9
F0.3091899494959358
sg10
F-1.3213147625340265
sg11
F1.7167362037669165
sg12
F0.0
sg13
F0.7477978826544927
sg14
F-2.6034144348552832
sg15
F-1.178753094496733
ssS'CALGER CHRISTOPHER F'
p188
(dp189
g3
F0.7044550754959739
sg4
F0.5499985940650414
sg5
F0.9623969543012637
sg6
F0.882231998989756
sg7
F1.2852237793438734
sg8
F-0.6178839763963068
sg9
F0.6710614851026697
sg10
F0.0113183386058999
sg11
F0.7737268280084068
sg12
F1.0
sg13
F1.0024231012193008
sg14
F-0.08272487540433796
sg15
F-1.373155010324583
ssS'RICE KENNETH D'
p190
(dp191
g3
F0.9102358398054011
sg4
F0.036819246532153925
sg5
F1.029110644924212
sg6
F1.1737175131749897
sg7
F2.276260197087871
sg8
F1.9106231854173406
sg9
F0.7676691390642736
sg10
F1.0972490978401903
sg11
F2.1378594733870826
sg12
F1.0
sg13
F1.1889382571275207
sg14
F1.1733012895982853
sg15
F-1.4972192500239188
ssS'KAMINSKI WINCENTY J'
p192
(dp193
g3
F0.7528068298917306
sg4
F0.35789453073137645
sg5
F0.7434443614953254
sg6
F1.0227537973884289
sg7
F0.546034698174863
sg8
F0.09127761652199984
sg9
F0.9854319073876008
sg10
F0.43372854225932733
sg11
F1.0311713924530643
sg12
F0.0
sg13
F0.9830666419366998
sg14
F-0.08272487540433796
sg15
F0.7477978826544927
ssS'LOCKHART EUGENE E'
p194
(dp195
g3
F-1.3569417648407054
sg4
F-1.9176209058014688
sg5
F-0.9567164716097402
sg6
F-0.16919953101609733
sg7
F-1.0284311083917295
sg8
F-0.43476534059333694
sg9
F-1.3673275855282496
sg10
F-1.3213147625340265
sg11
F-0.5416472638835655
sg12
F0.0
sg13
F0.7477978826544927
sg14
F-0.03933147416811105
sg15
F-1.178753094496733
ssS'COX DAVID'
p196
(dp197
g3
F0.801164863203663
sg4
F0.36389115281103773
sg5
F0.8753713930646646
sg6
F0.4407339257758529
sg7
F1.2371869483812976
sg8
F-0.17543173011523303
sg9
F0.5844158886975621
sg10
F0.014386151015427652
sg11
F-0.867074873478209
sg12
F0.0
sg13
F-0.9567164716097402
sg14
F0.2903000992790438
sg15
F-1.2498792796952685
ssS'OVERDYKE JR JERE C'
p198
(dp199
g3
F0.3975336987150939
sg4
F-0.22025648224258326
sg5
F-1.1180015626139308
sg6
F-0.16919953101609733
sg7
F-1.0284311083917295
sg8
F1.1270418200182044
sg9
F0.45496206322198746
sg10
F-0.17991326550092046
sg11
F1.5727317125118794
sg12
F0.0
sg13
F0.8686694094936271
sg14
F1.0207219197775874
sg15
F0.7477978826544927
ssS'PEREIRA PAULO V. FERRAZ'
p200
(dp201
g3
F-1.3569417648407054
sg4
F-0.8343923140631597
sg5
F-1.1180015626139308
sg6
F-0.16919953101609733
sg7
F-1.0284311083917295
sg8
F-1.9176209058014688
sg9
F0.5854008427887005
sg10
F-1.178753094496733
sg11
F-0.867074873478209
sg12
F0.0
sg13
F-0.9567164716097402
sg14
F-1.6276794545439914
sg15
F-1.3139709099556325
ssS'STABLER FRANK'
p202
(dp203
g3
F0.7034445369039213
sg4
F0.3682509998371974
sg5
F0.7854912241902042
sg6
F-0.16919953101609733
sg7
F0.7476049287617138
sg8
F-0.16362550316485136
sg9
F0.41297928671195855
sg10
F1.2256121395228408
sg11
F-0.867074873478209
sg12
F0.0
sg13
F-0.9567164716097402
sg14
F0.40619953886569216
sg15
F0.7477978826544927
ssS'SKILLING JEFFREY K'
p204
(dp205
g3
F1.3080637507056005
sg4
F1.499729556369891
sg5
F1.2672357822758062
sg6
F1.4122868280753063
sg7
F1.1176818054635518
sg8
F2.0255921748066665
sg9
F0.6019748169889976
sg10
F0.7206232399437509
sg11
F0.7398929167134792
sg12
F1.0
sg13
F1.2104364247166126
sg14
F1.6933637718720218
sg15
F0.7477978826544927
ssS'BLAKE JR. NORMAN P'
p206
(dp207
g3
F-1.3569417648407054
sg4
F-1.3661738055368986
sg5
F-1.1180015626139308
sg6
F-0.16919953101609733
sg7
F-1.0284311083917295
sg8
F-1.9176209058014688
sg9
F-0.2744060823958028
sg10
F-1.178753094496733
sg11
F-0.867074873478209
sg12
F0.0
sg13
F-0.9567164716097402
sg14
F-1.6276794545439914
sg15
F-1.3216845579377505
ssS'SHERRICK JEFFREY B'
p208
(dp209
g3
F-1.3569417648407054
sg4
F-1.8694304739818404
sg5
F-1.1180015626139308
sg6
F1.9937896570253275
sg7
F-1.0284311083917295
sg8
F0.3728620773571884
sg9
F-1.3213147625340265
sg10
F-1.178753094496733
sg11
F-0.867074873478209
sg12
F0.0
sg13
F-0.9567164716097402
sg14
F0.3170321522541432
sg15
F0.7477978826544927
ssS'CHAN RONNIE'
p210
(dp211
g3
F-1.3569417648407054
sg4
F-1.9176209058014688
sg5
F-0.9567164716097402
sg6
F-0.16919953101609733
sg7
F-1.0284311083917295
sg8
F-0.43476534059333694
sg9
F-1.3673275855282496
sg10
F-1.3213147625340265
sg11
F-0.5416472638835655
sg12
F0.0
sg13
F-1.3123238895201808
sg14
F-0.03933147416811105
sg15
F-1.178753094496733
ssS'GRAY RODNEY'
p212
(dp213
g3
F-0.2891528103120649
sg4
F0.38211589681437164
sg5
F-1.1180015626139308
sg6
F-0.16919953101609733
sg7
F-1.0284311083917295
sg8
F-1.9176209058014688
sg9
F-1.3213147625340265
sg10
F1.3420522334915561
sg11
F1.0982431548161216
sg12
F0.0
sg13
F0.9990257309455671
sg14
F-1.6276794545439914
sg15
F0.7477978826544927
ssS'PICKERING MARK R'
p214
(dp215
g3
F1.084847838974209
sg4
F-0.9795137366275101
sg5
F-0.9567164716097402
sg6
F-1.5170300344281538
sg7
F0.06194616457057726
sg8
F-0.43476534059333694
sg9
F-0.20943932304848822
sg10
F0.6280676321791293
sg11
F-0.5416472638835655
sg12
F0.0
sg13
F0.7477978826544927
sg14
F-0.056587512125014026
sg15
F-1.178753094496733
ssS'NOLES JAMES L'
p216
(dp217
g3
F-1.3569417648407054
sg4
F0.2102145450678873
sg5
F-1.1180015626139308
sg6
F-0.16919953101609733
sg7
F-1.0284311083917295
sg8
F-0.2812642300371255
sg9
F-1.3213147625340265
sg10
F-1.178753094496733
sg11
F-0.867074873478209
sg12
F0.0
sg13
F-0.9567164716097402
sg14
F0.3674226091062891
sg15
F0.7477978826544927
ssS'KEAN STEVEN J'
p218
(dp219
g3
F0.8951827041439357
sg4
F0.581227971398973
sg5
F0.9186774983025119
sg6
F-0.37392656033299043
sg7
F0.9954095153632788
sg8
F1.0219057609989555
sg9
F0.7270791036021357
sg10
F0.1855286470238377
sg11
F0.4994717564353994
sg12
F0.0
sg13
F0.9732326312311628
sg14
F1.39554499043163
sg15
F0.7477978826544927
ssS'HUGHES JAMES A'
p220
(dp221
g3
F-1.3569417648407054
sg4
F0.14924427382843952
sg5
F-0.9567164716097402
sg6
F0.6783068672090139
sg7
F-1.0284311083917295
sg8
F-0.43476534059333694
sg9
F0.5040070138080838
sg10
F-1.3213147625340265
sg11
F-0.5416472638835655
sg12
F0.0
sg13
F0.7477978826544927
sg14
F-0.2633104686985825
sg15
F-1.178753094496733
ssS'FOWLER PEGGY'
p222
(dp223
g3
F-1.3569417648407054
sg4
F-1.8694304739818404
sg5
F-1.1180015626139308
sg6
F-1.5170300344281538
sg7
F-1.0284311083917295
sg8
F0.3862613320278473
sg9
F-1.3213147625340265
sg10
F-1.178753094496733
sg11
F-0.867074873478209
sg12
F0.0
sg13
F-0.9567164716097402
sg14
F0.44202411595393787
sg15
F0.7477978826544927
ssS'WASAFF GEORGE'
p224
(dp225
g3
F0.7325739841432131
sg4
F0.3357647965513667
sg5
F0.7046761024894569
sg6
F1.2283613209552926
sg7
F0.3926314742835548
sg8
F0.428255177545144
sg9
F-1.3213147625340265
sg10
F0.21287677922426548
sg11
F0.6107585881245823
sg12
F0.0
sg13
F0.9199764002755574
sg14
F0.30013969918790634
sg15
F-1.416640224740219
ssS'WHITE JR THOMAS E'
p226
(dp227
g3
F0.8049444539567491
sg4
F0.6316204224122558
sg5
F0.7655883989683419
sg6
F-0.16919953101609733
sg7
F0.1223292450382855
sg8
F1.6140776630797076
sg9
F0.9748385128277786
sg10
F1.4255273427879895
sg11
F-0.867074873478209
sg12
F0.0
sg13
F-0.9567164716097402
sg14
F2.1554054218820884
sg15
F0.7477978826544927
ssS'CHRISTODOULOU DIOMEDES'
p228
(dp229
g3
F-1.3569417648407054
sg4
F1.0144634060437416
sg5
F-0.9567164716097402
sg6
F-0.16919953101609733
sg7
F-1.0284311083917295
sg8
F-0.43476534059333694
sg9
F1.050013884220679
sg10
F-1.3213147625340265
sg11
F-0.5416472638835655
sg12
F0.0
sg13
F0.7477978826544927
sg14
F-0.03933147416811105
sg15
F-1.178753094496733
ssS'ALLEN PHILLIP K'
p230
(dp231
g3
F0.6440185636559966
sg4
F1.0876146466171404
sg5
F1.206000913336518
sg6
F-0.8637154465234754
sg7
F1.4755936381850574
sg8
F0.3455563440020088
sg9
F0.3583233142835897
sg10
F-0.20755298265254324
sg11
F-0.19887707200187757
sg12
F0.0
sg13
F0.97530898316755
sg14
F-0.08272487540433796
sg15
F-1.492128297787473
ssS'SHARP VICTORIA T'
p232
(dp233
g3
F0.7159821081084192
sg4
F0.5311044341092557
sg5
F0.8201437640162034
sg6
F-0.5940287851889842
sg7
F0.5792902200760697
sg8
F-0.17654503842915478
sg9
F1.1179323204865432
sg10
F0.31017098947664046
sg11
F0.92750133934598
sg12
F0.0
sg13
F1.0176931411041013
sg14
F0.08671422258467243
sg15
F0.7477978826544927
ssS'JAEDICKE ROBERT'
p234
(dp235
g3
F-1.3569417648407054
sg4
F-0.557950248073248
sg5
F-1.1180015626139308
sg6
F-0.16919953101609733
sg7
F-1.0284311083917295
sg8
F-0.225555341034892
sg9
F-1.3213147625340265
sg10
F-1.178753094496733
sg11
F-0.867074873478209
sg12
F0.0
sg13
F-0.9567164716097402
sg14
F-0.37862834749365193
sg15
F-1.2102002055030494
ssS'WINOKUR JR. HERBERT S'
p236
(dp237
g3
F-1.3569417648407054
sg4
F-0.5538441165182328
sg5
F-1.1180015626139308
sg6
F-0.16919953101609733
sg7
F-1.0284311083917295
sg8
F-1.9176209058014688
sg9
F-0.2517549492161971
sg10
F-1.178753094496733
sg11
F-0.867074873478209
sg12
F0.0
sg13
F-0.9567164716097402
sg14
F-1.6276794545439914
sg15
F-1.2102002055030494
ssS'BROWN MICHAEL'
p238
(dp239
g3
F-1.3569417648407054
sg4
F-0.6985446675815009
sg5
F-1.1180015626139308
sg6
F-0.9683482254661335
sg7
F-1.0284311083917295
sg8
F-1.9176209058014688
sg9
F0.7853849726849562
sg10
F-1.178753094496733
sg11
F-0.867074873478209
sg12
F0.0
sg13
F-0.9567164716097402
sg14
F-1.6276794545439914
sg15
F0.7477978826544927
ssS'MCCLELLAN GEORGE'
p240
(dp241
g3
F0.737237654352915
sg4
F0.44646984859426897
sg5
F0.8981786136248762
sg6
F-1.5170300344281538
sg7
F1.1748219281452807
sg8
F0.07900579022407911
sg9
F1.407587709486086
sg10
F0.8755157920959943
sg11
F-0.867074873478209
sg12
F0.0
sg13
F-0.9567164716097402
sg14
F0.348563015859564
sg15
F-1.3278005365098513
ssS'CARTER REBECCA C'
p242
(dp243
g3
F0.7350549535497626
sg4
F0.015120824950425563
sg5
F0.6898226424773938
sg6
F1.821303916282538
sg7
F1.0908971064949677
sg8
F-1.9176209058014688
sg9
F-1.3213147625340265
sg10
F0.031111267615535183
sg11
F0.41862998586616706
sg12
F0.0
sg13
F0.788949785654668
sg14
F0.21437191317959747
sg15
F-1.3433742079031195
ssS'REYNOLDS LAWRENCE'
p244
(dp245
g3
F0.3313229437001122
sg4
F-0.057282970060856205
sg5
F0.4909876215135467
sg6
F-0.16919953101609733
sg7
F0.1963617273603105
sg8
F0.8033944416082112
sg9
F0.20853187603619183
sg10
F1.1234063170130835
sg11
F1.3032071761661992
sg12
F0.0
sg13
F0.8872934653217438
sg14
F0.06793896651227449
sg15
F-1.3571151842014173
ssS'DIMICHELE RICHARD G'
p246
(dp247
g3
F0.7363885234196496
sg4
F1.2086071391345754
sg5
F1.0818929119627707
sg6
F-0.16919953101609733
sg7
F0.683771445451707
sg8
F-0.43476534059333694
sg9
F1.2009530743708616
sg10
F0.6710027440386457
sg11
F-0.5416472638835655
sg12
F0.0
sg13
F0.7477978826544927
sg14
F-0.03933147416811105
sg15
F1.2347862875065951
ssS'BHATNAGAR SANJAY'
p248
(dp249
g3
F-1.3569417648407054
sg4
F1.6287351327856672
sg5
F-0.9567164716097402
sg6
F-0.7698369108787503
sg7
F-1.0284311083917295
sg8
F-0.43476534059333694
sg9
F1.4175527569083135
sg10
F1.1882485879078548
sg11
F-0.5416472638835655
sg12
F0.0
sg13
F0.7477978826544927
sg14
F-0.48102240671807867
sg15
F-1.178753094496733
ssS'BUCHANAN HAROLD G'
p250
(dp251
g3
F0.7157977771543824
sg4
F0.10757956650236528
sg5
F0.97530898316755
sg6
F-1.5170300344281538
sg7
F0.8019060924943465
sg8
F-0.43476534059333694
sg9
F0.5271101356475854
sg10
F-0.43704098016386167
sg11
F-0.5416472638835655
sg12
F0.0
sg13
F0.7477978826544927
sg14
F-2.118077020477615
sg15
F0.1830826388024325
ssS'YEAP SOON'
p252
(dp253
g3
F-1.3569417648407054
sg4
F-0.670142859845929
sg5
F-1.1180015626139308
sg6
F-0.16919953101609733
sg7
F-1.0284311083917295
sg8
F-0.49298889896909476
sg9
F0.8264313121323659
sg10
F-1.178753094496733
sg11
F-0.867074873478209
sg12
F0.0
sg13
F-0.9567164716097402
sg14
F-1.6276794545439914
sg15
F0.7477978826544927
ssS'MURRAY JULIA H'
p254
(dp255
g3
F0.6881128461508084
sg4
F0.23041631873224028
sg5
F0.7434443614953254
sg6
F-0.5882872562444733
sg7
F0.8410042787906449
sg8
F-0.10537359449082428
sg9
F0.8428380477419309
sg10
F-0.06148584015300653
sg11
F0.4005924332265094
sg12
F0.0
sg13
F0.8575806963039971
sg14
F0.06040161059529782
sg15
F0.7477978826544927
ssS'GARLAND C KEVIN'
p256
(dp257
g3
F0.6921627002187185
sg4
F0.5280259636075368
sg5
F0.8870963143075477
sg6
F1.9460233696066145
sg7
F0.9407602258749576
sg8
F0.055699363987435954
sg9
F0.778781682364333
sg10
F0.9055152194861161
sg11
F0.8181883363992888
sg12
F0.0
sg13
F1.0024231012193008
sg14
F0.15497886988077605
sg15
F0.7477978826544927
ssS'DODSON KEITH'
p258
(dp259
g3
F0.6752510559416638
sg4
F-0.13370289138021993
sg5
F0.42840837977242946
sg6
F1.1322250910863543
sg7
F0.07116780099741776
sg8
F-1.9176209058014688
sg9
F0.5880876954850784
sg10
F0.0986611380089479
sg11
F-0.867074873478209
sg12
F0.0
sg13
F-0.9567164716097402
sg14
F-1.6276794545439914
sg15
F0.7477978826544927
ssS'YEAGER F SCOTT'
p260
(dp261
g3
F0.5618047301576125
sg4
F1.4443602460908171
sg5
F-0.9567164716097402
sg6
F-0.16919953101609733
sg7
F-1.0284311083917295
sg8
F-0.43476534059333694
sg9
F1.2056288071936634
sg10
F0.8186140198028056
sg11
F-0.5416472638835655
sg12
F1.0
sg13
F0.7477978826544927
sg14
F-0.03933147416811105
sg15
F1.0670219068178264
ssS'HIRKO JOSEPH'
p262
(dp263
g3
F-1.3569417648407054
sg4
F-0.5343549946480659
sg5
F-1.1180015626139308
sg6
F-0.16919953101609733
sg7
F-1.0284311083917295
sg8
F2.159031003118485
sg9
F0.9583308267522003
sg10
F0.34246272786841336
sg11
F-0.867074873478209
sg12
F1.0
sg13
F-0.9567164716097402
sg14
F-1.6276794545439914
sg15
F0.7477978826544927
ssS'DIETRICH JANET R'
p264
(dp265
g3
F0.7187642096265923
sg4
F0.3812577852281637
sg5
F1.0533638829945078
sg6
F1.1737175131749897
sg7
F0.6912410135671103
sg8
F-0.43476534059333694
sg9
F0.6964095677781866
sg10
F-0.03306766118069895
sg11
F-0.5416472638835655
sg12
F0.0
sg13
F0.7477978826544927
sg14
F1.0881413235186836
sg15
F0.006223256804838862
ssS'DERRICK JR. JAMES V'
p266
(dp267
g3
F0.9710654277190509
sg4
F0.071015730111599
sg5
F0.8753713930646646
sg6
F-1.0176074497308292
sg7
F1.842252178037708
sg8
F1.2470915604868005
sg9
F0.7987925913790692
sg10
F0.5210098352208274
sg11
F1.8767617371476646
sg12
F0.0
sg13
F1.0353824657398185
sg14
F0.9551773132854979
sg15
F-1.4547804479681326
ssS'FREVERT MARK A'
p268
(dp269
g3
F1.2878169389724163
sg4
F1.5890180004700674
sg5
F1.1889382571275207
sg6
F1.440108611531975
sg7
F-0.36829719056365845
sg8
F1.6570358606514364
sg9
F1.2817977655551955
sg10
F1.0011151721002303
sg11
F1.6365402176332735
sg12
F0.0
sg13
F-1.4956484333176145
sg14
F1.7627454185028346
sg15
F1.7669211888471525
ssS'PAI LOU L'
p270
(dp271
g3
F0.7351504478158385
sg4
F0.8826546339985473
sg5
F0.9186774983025119
sg6
F-0.16919953101609733
sg7
F0.41054301074373845
sg8
F1.9534908787030438
sg9
F0.6323386217024303
sg10
F1.518633494700653
sg11
F-0.867074873478209
sg12
F0.0
sg13
F-0.9567164716097402
sg14
F1.826006407962685
sg15
F0.7477978826544927
ssS'BAY FRANKLIN R'
p272
(dp273
g3
F0.7036933570057061
sg4
F-0.8006604955975941
sg5
F-0.9567164716097402
sg6
F-0.16919953101609733
sg7
F0.8215762331552102
sg8
F2.4020716338861927
sg9
F-1.3673275855282496
sg10
F1.1609940283706286
sg11
F-0.5416472638835655
sg12
F0.0
sg13
F-1.357606779868576
sg14
F-0.03933147416811105
sg15
F-0.3563464946956098
ssS'MCCARTY DANNY J'
p274
(dp275
g3
F-1.3569417648407054
sg4
F-1.8694304739818404
sg5
F-1.1180015626139308
sg6
F-1.295398898704852
sg7
F-1.0284311083917295
sg8
F-0.011874399350549429
sg9
F-1.3213147625340265
sg10
F-1.178753094496733
sg11
F-0.867074873478209
sg12
F0.0
sg13
F-0.9567164716097402
sg14
F-0.16910388133326032
sg15
F0.7477978826544927
ssS'FUGH JOHN L'
p276
(dp277
g3
F-1.3569417648407054
sg4
F-0.6919459568153767
sg5
F-1.1180015626139308
sg6
F-0.16919953101609733
sg7
F-1.0284311083917295
sg8
F-0.5199519912125508
sg9
F-1.3213147625340265
sg10
F-1.178753094496733
sg11
F-0.867074873478209
sg12
F0.0
sg13
F-0.9567164716097402
sg14
F-1.6276794545439914
sg15
F0.7477978826544927
ssS'FALLON JAMES B'
p278
(dp279
g3
F0.7896987925782711
sg4
F0.49018996231692613
sg5
F1.0020912125158021
sg6
F1.8514836151337875
sg7
F1.171225527698633
sg8
F-0.43476534059333694
sg9
F0.5611934952590588
sg10
F1.0399118333971944
sg11
F-0.5416472638835655
sg12
F0.0
sg13
F0.7477978826544927
sg14
F0.8573001052451971
sg15
F1.2472130267736337
ssS'KOENIG MARK E'
p280
(dp281
g3
F0.796070428034548
sg4
F0.5344309787046826
sg5
F0.8496526415711952
sg6
F1.285680177876406
sg7
F0.7278114801859352
sg8
F0.3951421137572938
sg9
F1.1541122324953281
sg10
F1.0700661762870867
sg11
F0.589135635660768
sg12
F1.0
sg13
F0.9732326312311628
sg14
F0.7852538384703929
sg15
F0.7477978826544927
ssS'SAVAGE FRANK'
p282
(dp283
g3
F-1.3569417648407054
sg4
F-1.21431069909343
sg5
F-1.1180015626139308
sg6
F-0.16919953101609733
sg7
F-1.0284311083917295
sg8
F-1.9176209058014688
sg9
F-1.3213147625340265
sg10
F-1.178753094496733
sg11
F-0.867074873478209
sg12
F0.0
sg13
F-0.9567164716097402
sg14
F-1.6276794545439914
sg15
F-1.3258466388164405
ssS'IZZO LAWRENCE L'
p284
(dp285
g3
F0.36455681220085556
sg4
F0.9885536592206711
sg5
F0.9785653172538278
sg6
F1.357330953235009
sg7
F-1.0284311083917295
sg8
F-0.43476534059333694
sg9
F0.7908197111222682
sg10
F0.5872303927208529
sg11
F-0.5416472638835655
sg12
F0.0
sg13
F0.7477978826544927
sg14
F-0.5307328066292429
sg15
F1.4895318851862114
ssS'TILNEY ELIZABETH A'
p286
(dp287
g3
F0.7148261801215201
sg4
F-0.052667263801540916
sg5
F0.6898226424773938
sg6
F1.9243618653040662
sg7
F1.270416864212875
sg8
F0.16806324273528436
sg9
F-1.3213147625340265
sg10
F1.0719781430270012
sg11
F1.7397526654717734
sg12
F0.0
sg13
F0.9618483694094835
sg14
F0.4537284246107517
sg15
F-1.415902594053512
ssS'MARTIN AMANDA K'
p288
(dp289
g3
F0.8403713600245731
sg4
F1.4783994172917565
sg5
F-1.1180015626139308
sg6
F-1.5170300344281538
sg7
F-1.0284311083917295
sg8
F0.431525133924983
sg9
F0.20164112979721405
sg10
F1.5954655521380552
sg11
F1.6604466453005438
sg12
F0.0
sg13
F1.3321045102729705
sg14
F-1.6276794545439914
sg15
F0.7477978826544927
ssS'BUY RICHARD B'
p290
(dp291
g3
F0.8197188181584693
sg4
F0.7321534667479286
sg5
F0.8981786136248762
sg6
F-0.217764308313943
sg7
F0.5831165135551585
sg8
F0.6918697459357595
sg9
F-1.3213147625340265
sg10
F1.2468052723031187
sg11
F1.1220325665655255
sg12
F0.0
sg13
F1.0950011429679798
sg14
F0.6401323331234338
sg15
F-1.4254923576176837
ssS'GRAMM WENDY L'
p292
(dp293
g3
F-1.3569417648407054
sg4
F-0.4560879807276519
sg5
F-1.1180015626139308
sg6
F-0.16919953101609733
sg7
F-1.0284311083917295
sg8
F-1.9176209058014688
sg9
F-1.3213147625340265
sg10
F-1.178753094496733
sg11
F-0.867074873478209
sg12
F0.0
sg13
F-0.9567164716097402
sg14
F-1.6276794545439914
sg15
F0.7477978826544927
ssS'CAUSEY RICHARD A'
p294
(dp295
g3
F0.9052614703921766
sg4
F0.6143966307580142
sg5
F0.9186774983025119
sg6
F1.2812686685420824
sg7
F0.9264207847909446
sg8
F0.5253912812461491
sg9
F0.617251924121976
sg10
F1.1994271705838169
sg11
F0.5806306784657526
sg12
F1.0
sg13
F0.9933419476112202
sg14
F1.12430379642815
sg15
F-1.3667063928611347
ssS'TAYLOR MITCHELL S'
p296
(dp297
g3
F0.7396748737191263
sg4
F0.3603064169528285
sg5
F0.8201437640162034
sg6
F-1.5170300344281538
sg7
F0.9530054498801186
sg8
F0.7371827715682854
sg9
F-1.3213147625340265
sg10
F-1.178753094496733
sg11
F-0.867074873478209
sg12
F0.0
sg13
F-0.9567164716097402
sg14
F0.4446030098537617
sg15
F0.7477978826544927
ssS'DONAHUE JR JEFFREY M'
p298
(dp299
g3
F0.7573585367277039
sg4
F0.1346161514220681
sg5
F-0.9567164716097402
sg6
F1.8583861725946536
sg7
F1.458052257904361
sg8
F-0.43476534059333694
sg9
F0.5077204263240317
sg10
F1.0413414485241486
sg11
F-0.5416472638835655
sg12
F0.0
sg13
F-1.3807947560847909
sg14
F0.0033109494150513983
sg15
F0.12503963486837427
ssS'GLISAN JR BEN F'
p300
(dp301
g3
F0.752642043368266
sg4
F-0.0016413148850940881
sg5
F0.7815790849706366
sg6
F1.676696193617044
sg7
F0.7964745403311414
sg8
F-0.43476534059333694
sg9
F0.3362981053342696
sg10
F1.1507109835449754
sg11
F-0.5416472638835655
sg12
F1.0
sg13
F0.7477978826544927
sg14
F0.13391832380592333
sg15
F1.1218395362609082
ss.