(lp0
S'poi'
p1
aS'salary'
p2
aS'long_term_incentive'
p3
aS'deferred_income'
p4
aS'other'
p5
aS'expenses'
p6
aS'exercised_stock_options'
p7
aS'total_stock_value'
p8
aS'shared_receipt_with_poi'
p9
aS'bonus_deferral_payments_rate'
p10
aS'exer_stock_options_deferral_payments_rate'
p11
aS'bonus_total_payments_rate'
p12
aS'toPOI_rate'
p13
a.