(dp0
S'METTS MARK'
p1
(dp2
S'exer_stock_options_deferral_payments_rate'
p3
F-0.5416472638835655
sS'bonus'
p4
F0.8201437640162034
sS'rest_stock_deferral_payments_rate'
p5
F-0.46561690626725305
sS'total_stock_value'
p6
F-0.11336417205850076
sS'expenses'
p7
F1.0330977891327136
sS'exercised_stock_options'
p8
F-1.3673275855282496
sS'bonus_deferral_payments_rate'
p9
F-0.43476534059333694
sS'poi'
p10
F0.0
sS'deferred_income'
p11
F0.7477978826544927
sS'shared_receipt_with_poi'
p12
F-0.09312172227889187
sS'toPOI_rate'
p13
F-0.7698369108787503
ssS'BAXTER JOHN C'
p14
(dp15
g3
F2.0433618519199843
sg4
F0.9543678243844236
sg5
F2.4393017721281103
sg6
F1.368455388130901
sg7
F0.2931362744113618
sg8
F1.1343587339123558
sg9
F2.312630338301306
sg10
F0.0
sg11
F-1.4582430318722204
sg12
F-0.03933147416811105
sg13
F-0.16919953101609733
ssS'ELLIOTT STEVEN'
p16
(dp17
g3
F-0.5416472638835655
sg4
F0.7184734576918246
sg5
F-0.46561690626725305
sg6
F1.0715568755042382
sg7
F0.9611815854048836
sg8
F1.0351856558982446
sg9
F-0.43476534059333694
sg10
F0.0
sg11
F-1.3968414049063556
sg12
F-0.03933147416811105
sg13
F-0.16919953101609733
ssS'CORDES WILLIAM R'
p18
(dp19
g3
F-0.5416472638835655
sg4
F-1.1180015626139308
sg5
F-0.46561690626725305
sg6
F0.11736875853892914
sg7
F-1.3213147625340265
sg8
F0.46646457097962896
sg9
F-0.43476534059333694
sg10
F0.0
sg11
F0.7477978826544927
sg12
F-1.7784276582411287
sg13
F-1.5170300344281538
ssS'HANNON KEVIN P'
p20
(dp21
g3
F-0.5416472638835655
sg4
F0.9984279381674119
sg5
F-0.46561690626725305
sg6
F1.0447619773245476
sg7
F0.6532585116215225
sg8
F1.0743415391800797
sg9
F-0.43476534059333694
sg10
F1.0
sg11
F-1.4925911440655177
sg12
F0.3208252936759849
sg13
F1.9680813576169247
ssS'MORDAUNT KRISTINA M'
p22
(dp23
g3
F-0.5416472638835655
sg4
F0.7046761024894569
sg5
F-0.46561690626725305
sg6
F-0.46874716244001763
sg7
F0.6631529109582832
sg8
F-1.3673275855282496
sg9
F-0.43476534059333694
sg10
F0.0
sg11
F0.7477978826544927
sg12
F-0.03933147416811105
sg13
F-0.16919953101609733
ssS'MEYER ROCKFORD G'
p24
(dp25
g3
F0.35043155372263585
sg4
F-1.1180015626139308
sg5
F1.2438750107191183
sg6
F0.08252490951314584
sg7
F-1.3213147625340265
sg8
F0.39687018416352665
sg9
F-0.43476534059333694
sg10
F0.0
sg11
F0.7477978826544927
sg12
F-2.1317574905492025
sg13
F-1.5170300344281538
ssS'MCMAHON JEFFREY'
p26
(dp27
g3
F-0.5416472638835655
sg4
F1.108839967791549
sg5
F-0.46561690626725305
sg6
F0.3271583484006931
sg7
F1.1859464248404972
sg8
F0.6038702929879715
sg9
F-0.43476534059333694
sg10
F0.0
sg11
F0.7477978826544927
sg12
F1.3145408902840352
sg13
F1.896500243402099
ssS'HORTON STANLEY C'
p28
(dp29
g3
F1.6500889339849822
sg4
F-1.1180015626139308
sg5
F2.0508897481482116
sg6
F1.122693077598875
sg7
F-1.3213147625340265
sg8
F1.0550910378544038
sg9
F-0.43476534059333694
sg10
F0.0
sg11
F0.7477978826544927
sg12
F0.36314344950372085
sg13
F-1.189898769049783
ssS'PIPER GREGORY F'
p30
(dp31
g3
F1.1431979578963885
sg4
F0.7434443614953254
sg5
F1.5915510840162774
sg6
F0.04833251606442156
sg7
F0.7363946893613236
sg8
F0.5438852706143519
sg9
F1.768495431673605
sg10
F0.0
sg11
F-1.23335780780569
sg12
F-0.03727380494340141
sg13
F1.142514525621479
ssS'HUMPHREY GENE E'
p32
(dp33
g3
F1.1344205637700153
sg4
F-1.1180015626139308
sg5
F-0.46561690626725305
sg6
F0.4795034520465949
sg7
F0.06267983249892413
sg8
F0.8060620057229321
sg9
F-0.43476534059333694
sg10
F0.0
sg11
F0.7477978826544927
sg12
F-1.4281987068307862
sg13
F2.0497936821686946
ssS'UMANOFF ADAM S'
p34
(dp35
g3
F-0.5416472638835655
sg4
F0.8726367312084939
sg5
F-0.46561690626725305
sg6
F-1.9176209058014688
sg7
F0.8129163420840857
sg8
F-1.3673275855282496
sg9
F-0.43476534059333694
sg10
F0.0
sg11
F0.7477978826544927
sg12
F-1.9188792409119824
sg13
F-1.5170300344281538
ssS'BLACHMAN JEREMY M'
p36
(dp37
g3
F-0.5416472638835655
sg4
F0.8870963143075477
sg5
F-0.46561690626725305
sg6
F0.08185954668241359
sg7
F0.9883448944671779
sg8
F0.5075159023502567
sg9
F-0.43476534059333694
sg10
F0.0
sg11
F0.7477978826544927
sg12
F1.378244269500253
sg13
F0.6425196471821752
ssS'SUNDE MARTIN'
p38
(dp39
g3
F-0.5416472638835655
sg4
F0.8496526415711952
sg5
F-0.46561690626725305
sg6
F-0.044563590143220595
sg7
F-1.3213147625340265
sg8
F-1.3673275855282496
sg9
F-0.43476534059333694
sg10
F0.0
sg11
F0.7477978826544927
sg12
F1.5264435263375602
sg13
F1.6036261879239768
ssS'GIBBS DANA R'
p40
(dp41
g3
F2.011863713792921
sg4
F-1.1180015626139308
sg5
F-0.46561690626725305
sg6
F0.46533378658688723
sg7
F-1.3213147625340265
sg8
F0.797792279975503
sg9
F-0.43476534059333694
sg10
F0.0
sg11
F0.7477978826544927
sg12
F-2.118077020477615
sg13
F-1.5170300344281538
ssS'LOWRY CHARLES P'
p42
(dp43
g3
F-0.5416472638835655
sg4
F-1.1180015626139308
sg5
F-0.46561690626725305
sg6
F-0.2779778493865944
sg7
F-1.3213147625340265
sg8
F0.32836435022705446
sg9
F-0.43476534059333694
sg10
F0.0
sg11
F0.7477978826544927
sg12
F-0.03933147416811105
sg13
F-0.16919953101609733
ssS'COLWELL WESLEY'
p44
(dp45
g3
F-0.5416472638835655
sg4
F0.9543678243844236
sg5
F2.4509869386377194
sg6
F-0.04494561502242371
sg7
F0.41297928671195855
sg8
F-1.3673275855282496
sg9
F2.4344341100170284
sg10
F1.0
sg11
F-1.3368718647672695
sg12
F0.42422672196473354
sg13
F1.4022239918866852
ssS'MULLER MARK S'
p46
(dp47
g3
F1.4805727693916462
sg4
F0.9373003691893488
sg5
F1.7366553463642398
sg6
F0.2536854208994574
sg7
F-1.3213147625340265
sg8
F0.5920536882396958
sg9
F2.383172979835659
sg10
F0.0
sg11
F-1.427193044936674
sg12
F-1.4516139486005455
sg13
F-1.5170300344281538
ssS'JACKSON CHARLENE R'
p48
(dp49
g3
F-0.5416472638835655
sg4
F0.656177742097334
sg5
F-0.46561690626725305
sg6
F-0.02968836253877394
sg7
F0.2646221980424867
sg8
F0.167055956041702
sg9
F-0.43476534059333694
sg10
F0.0
sg11
F0.7477978826544927
sg12
F-1.4374853428339651
sg13
F1.5966877095786742
ssS'WESTFAHL RICHARD K'
p50
(dp51
g3
F-0.5416472638835655
sg4
F-1.1180015626139308
sg5
F-0.46561690626725305
sg6
F-0.2662353413975452
sg7
F0.8041211785915686
sg8
F-1.3673275855282496
sg9
F-0.43476534059333694
sg10
F0.0
sg11
F-1.1366287617477533
sg12
F-0.03933147416811105
sg13
F-0.16919953101609733
ssS'WALTERS GARETH W'
p52
(dp53
g3
F2.1529658523277506
sg4
F-1.1180015626139308
sg5
F-0.46561690626725305
sg6
F0.1141412373174499
sg7
F0.6506510902696915
sg8
F0.5854168817791016
sg9
F-0.43476534059333694
sg10
F0.0
sg11
F0.7477978826544927
sg12
F-0.03933147416811105
sg13
F-0.16919953101609733
ssS'WALLS JR ROBERT H'
p54
(dp55
g3
F-0.5416472638835655
sg4
F0.8870963143075477
sg5
F-0.46561690626725305
sg6
F0.9965884804280657
sg7
F0.7974390856298669
sg8
F0.9985371413823737
sg9
F-0.43476534059333694
sg10
F0.0
sg11
F0.7477978826544927
sg12
F-1.0683501949477243
sg13
F-1.5170300344281538
ssS'KITCHEN LOUISE'
p56
(dp57
g3
F-0.5416472638835655
sg4
F1.1446959575530582
sg5
F-0.46561690626725305
sg6
F-0.1386780391923436
sg7
F0.10230032398940983
sg8
F-0.009062045432603276
sg9
F-0.43476534059333694
sg10
F0.0
sg11
F0.7477978826544927
sg12
F2.1120631630621456
sg13
F0.348021309404057
ssS'PRENTICE JAMES'
p58
(dp59
g3
F1.6178549645298126
sg4
F-1.1180015626139308
sg5
F1.6101729504598579
sg6
F0.14015847575795584
sg7
F-1.3213147625340265
sg8
F0.5456463987531706
sg9
F-0.43476534059333694
sg10
F0.0
sg11
F0.7477978826544927
sg12
F-0.03933147416811105
sg13
F-0.16919953101609733
ssS'BELFER ROBERT'
p60
(dp61
g3
F-0.5416472638835655
sg4
F-1.1180015626139308
sg5
F-0.46561690626725305
sg6
F-1.9176209058014688
sg7
F-0.04750704798332317
sg8
F-1.3673275855282496
sg9
F-0.43476534059333694
sg10
F0.0
sg11
F-1.314788247818095
sg12
F-0.03933147416811105
sg13
F-0.16919953101609733
ssS'SHANKMAN JEFFREY A'
p62
(dp63
g3
F-0.5416472638835655
sg4
F1.0558524555816968
sg5
F-0.46561690626725305
sg6
F0.43193125702011553
sg7
F1.2994636557449353
sg8
F0.6764130918240985
sg9
F-0.43476534059333694
sg10
F0.0
sg11
F0.7477978826544927
sg12
F0.9581194646510977
sg13
F-0.8374222504919624
ssS'WODRASKA JOHN'
p64
(dp65
g3
F-0.5416472638835655
sg4
F-1.1180015626139308
sg5
F-0.46561690626725305
sg6
F-1.9176209058014688
sg7
F-1.3213147625340265
sg8
F-1.3673275855282496
sg9
F-0.43476534059333694
sg10
F0.0
sg11
F0.7477978826544927
sg12
F-0.03933147416811105
sg13
F-0.16919953101609733
ssS'BERGSIEKER RICHARD P'
p66
(dp67
g3
F-0.5416472638835655
sg4
F0.656177742097334
sg5
F-0.46561690626725305
sg6
F-0.06743651561771379
sg7
F0.8530560594043225
sg8
F-1.3673275855282496
sg9
F-0.43476534059333694
sg10
F0.0
sg11
F-1.4071337640929553
sg12
F-1.0136534492647744
sg13
F-1.5170300344281538
ssS'URQUHART JOHN A'
p68
(dp69
g3
F-0.5416472638835655
sg4
F-1.1180015626139308
sg5
F-0.46561690626725305
sg6
F-1.9176209058014688
sg7
F1.407378246045697
sg8
F-1.3673275855282496
sg9
F-0.43476534059333694
sg10
F0.0
sg11
F-1.240811742316192
sg12
F-0.03933147416811105
sg13
F-0.16919953101609733
ssS'BIBI PHILIPPE A'
p70
(dp71
g3
F-0.5416472638835655
sg4
F0.9186774983025119
sg5
F-0.46561690626725305
sg6
F0.3757964551740144
sg7
F0.697043344778245
sg8
F0.680934197181163
sg9
F-0.43476534059333694
sg10
F0.0
sg11
F0.7477978826544927
sg12
F0.6238363972537031
sg13
F1.0519337707568468
ssS'PIRO JIM'
p72
(dp73
g3
F-0.5416472638835655
sg4
F-1.1180015626139308
sg5
F-0.46561690626725305
sg6
F-0.8693469300815517
sg7
F-1.3213147625340265
sg8
F-1.3673275855282496
sg9
F-0.43476534059333694
sg10
F0.0
sg11
F0.7477978826544927
sg12
F-2.5545977477897055
sg13
F-0.2919466867886885
ssS'RIEKER PAULA H'
p74
(dp75
g3
F2.098185457172486
sg4
F0.8496526415711952
sg5
F2.3463018272590683
sg6
F0.3948504375891122
sg7
F0.6453221660003654
sg8
F0.711307937992567
sg9
F2.431780694909963
sg10
F1.0
sg11
F-1.3131418834269075
sg12
F0.5500839230826866
sg13
F1.9286546888208278
ssS'WHALEY DAVID A'
p76
(dp77
g3
F-0.5416472638835655
sg4
F-1.1180015626139308
sg5
F-0.46561690626725305
sg6
F-0.6851210352959151
sg7
F-1.3213147625340265
sg8
F0.0316556452980516
sg9
F-0.43476534059333694
sg10
F0.0
sg11
F0.7477978826544927
sg12
F-0.03933147416811105
sg13
F-0.16919953101609733
ssS'BECK SALLY W'
p78
(dp79
g3
F-0.5416472638835655
sg4
F0.8496526415711952
sg5
F-0.46561690626725305
sg6
F-0.6178839763963068
sg7
F0.6841039047956408
sg8
F-1.3673275855282496
sg9
F-0.43476534059333694
sg10
F0.0
sg11
F0.7477978826544927
sg12
F1.5704551427210214
sg13
F0.07577265179958093
ssS'HAUG DAVID L'
p80
(dp81
g3
F-0.5416472638835655
sg4
F-1.1180015626139308
sg5
F-0.46561690626725305
sg6
F0.46511681729740756
sg7
F-0.4840183023778336
sg8
F-1.3673275855282496
sg9
F-0.43476534059333694
sg10
F0.0
sg11
F0.7477978826544927
sg12
F-0.4661013528460014
sg13
F1.6631715170589851
ssS'ECHOLS JOHN B'
p82
(dp83
g3
F-0.5416472638835655
sg4
F0.61535354983347
sg5
F-0.46561690626725305
sg6
F0.10525278205737686
sg7
F0.49844222692885554
sg8
F0.446129879676896
sg9
F-0.43476534059333694
sg10
F0.0
sg11
F0.7477978826544927
sg12
F-0.03933147416811105
sg13
F-0.16919953101609733
ssS'MENDELSOHN JOHN'
p84
(dp85
g3
F-0.5416472638835655
sg4
F-1.1180015626139308
sg5
F-0.46561690626725305
sg6
F-1.9176209058014688
sg7
F-0.6976653873571192
sg8
F-1.3673275855282496
sg9
F-0.43476534059333694
sg10
F0.0
sg11
F-1.3155942013771327
sg12
F-0.03933147416811105
sg13
F-0.16919953101609733
ssS'HICKERSON GARY J'
p86
(dp87
g3
F-0.5416472638835655
sg4
F1.0233254789168542
sg5
F-0.46561690626725305
sg6
F-0.21786428852737352
sg7
F1.0519284709873598
sg8
F-1.3673275855282496
sg9
F-0.43476534059333694
sg10
F0.0
sg11
F0.7477978826544927
sg12
F0.1655710912950407
sg13
F-0.7219719240519604
ssS'CLINE KENNETH W'
p88
(dp89
g3
F-0.5416472638835655
sg4
F-1.1180015626139308
sg5
F-0.46561690626725305
sg6
F-0.4981717817535711
sg7
F-1.3213147625340265
sg8
F-1.3673275855282496
sg9
F-0.43476534059333694
sg10
F0.0
sg11
F0.7477978826544927
sg12
F-0.03933147416811105
sg13
F-0.16919953101609733
ssS'LEWIS RICHARD'
p90
(dp91
g3
F-0.5416472638835655
sg4
F-1.1180015626139308
sg5
F-0.46561690626725305
sg6
F0.03419306518676857
sg7
F-1.3213147625340265
sg8
F0.5348834693155994
sg9
F-0.43476534059333694
sg10
F0.0
sg11
F0.7477978826544927
sg12
F-0.04139191784570357
sg13
F-1.5170300344281538
ssS'HAYES ROBERT E'
p92
(dp93
g3
F-0.5416472638835655
sg4
F-1.1180015626139308
sg5
F2.4509730749546508
sg6
F-0.5652034648035961
sg7
F-1.3213147625340265
sg8
F-1.3673275855282496
sg9
F-0.43476534059333694
sg10
F0.0
sg11
F0.7477978826544927
sg12
F-1.8406002842560116
sg13
F-1.5170300344281538
ssS'KOPPER MICHAEL J'
p94
(dp95
g3
F-0.5416472638835655
sg4
F0.8753713930646646
sg5
F-0.46561690626725305
sg6
F0.09513523928513908
sg7
F1.124216453321764
sg8
F-1.3673275855282496
sg9
F-0.43476534059333694
sg10
F1.0
sg11
F0.7477978826544927
sg12
F-0.03933147416811105
sg13
F-0.16919953101609733
ssS'LEFF DANIEL P'
p96
(dp97
g3
F-0.5416472638835655
sg4
F0.9186774983025119
sg5
F-0.46561690626725305
sg6
F-0.289041176009462
sg7
F-1.3213147625340265
sg8
F-1.3673275855282496
sg9
F-0.43476534059333694
sg10
F0.0
sg11
F0.7477978826544927
sg12
F1.5898171832500592
sg13
F1.1737175131749897
ssS'LAVORATO JOHN J'
p98
(dp99
g3
F-0.5416472638835655
sg4
F1.3426496377488815
sg5
F-0.46561690626725305
sg6
F0.9185736705501253
sg7
F0.7872284867202093
sg8
F0.9849394435485367
sg9
F-0.43476534059333694
sg10
F0.0
sg11
F0.7477978826544927
sg12
F2.247148518699289
sg13
F0.7745272030750758
ssS'BERBERIAN DAVID'
p100
(dp101
g3
F-0.5416472638835655
sg4
F-1.1180015626139308
sg5
F-0.46561690626725305
sg6
F0.5236849125919809
sg7
F0.3112415901219281
sg8
F0.7094516619686745
sg9
F-0.43476534059333694
sg10
F0.0
sg11
F0.7477978826544927
sg12
F-0.03933147416811105
sg13
F-0.16919953101609733
ssS'DETMERING TIMOTHY J'
p102
(dp103
g3
F1.810753296731551
sg4
F0.7548283478212582
sg5
F1.5853567580024996
sg6
F0.4214695369649414
sg7
F0.8068452071235773
sg8
F0.7720540964745097
sg9
F2.00852917047821
sg10
F0.0
sg11
F-1.4309131820617396
sg12
F-0.03933147416811105
sg13
F-0.16919953101609733
ssS'WAKEHAM JOHN'
p104
(dp105
g3
F-0.5416472638835655
sg4
F-1.1180015626139308
sg5
F-0.46561690626725305
sg6
F-1.9176209058014688
sg7
F1.0714773592261442
sg8
F-1.3673275855282496
sg9
F-0.43476534059333694
sg10
F0.0
sg11
F0.7477978826544927
sg12
F-0.03933147416811105
sg13
F-0.16919953101609733
ssS'POWERS WILLIAM'
p106
(dp107
g3
F-0.5416472638835655
sg4
F-1.1180015626139308
sg5
F-0.46561690626725305
sg6
F-1.9176209058014688
sg7
F-1.3213147625340265
sg8
F-1.3673275855282496
sg9
F-0.43476534059333694
sg10
F0.0
sg11
F-1.1800641537274965
sg12
F-2.2975597516707595
sg13
F-1.5170300344281538
ssS'GOLD JOSEPH'
p108
(dp109
g3
F-0.5416472638835655
sg4
F0.8629227257044125
sg5
F-0.46561690626725305
sg6
F0.04707784578401484
sg7
F-1.3213147625340265
sg8
F0.36682719937111385
sg9
F-0.43476534059333694
sg10
F0.0
sg11
F0.7477978826544927
sg12
F-0.03933147416811105
sg13
F-0.16919953101609733
ssS'BANNANTINE JAMES M'
p110
(dp111
g3
F-0.5416472638835655
sg4
F-1.1180015626139308
sg5
F-0.46561690626725305
sg6
F0.9271128736568397
sg7
F0.8344653319307616
sg8
F0.9764912914557697
sg9
F-0.43476534059333694
sg10
F0.0
sg11
F-1.062623412421818
sg12
F-0.4772761777727919
sg13
F-1.5170300344281538
ssS'DUNCAN JOHN H'
p112
(dp113
g3
F-0.5416472638835655
sg4
F-1.1180015626139308
sg5
F-0.46561690626725305
sg6
F-0.27840366824024265
sg7
F-1.3213147625340265
sg8
F0.3280716127543436
sg9
F-0.43476534059333694
sg10
F0.0
sg11
F-1.2102002055030494
sg12
F-0.03933147416811105
sg13
F-0.16919953101609733
ssS'SHAPIRO RICHARD S'
p114
(dp115
g3
F-0.5416472638835655
sg4
F0.835442070661393
sg5
F-0.46561690626725305
sg6
F0.09597588468680633
sg7
F1.1879538183666285
sg8
F0.4487938674610757
sg9
F-0.43476534059333694
sg10
F0.0
sg11
F0.7477978826544927
sg12
F2.489927760786829
sg13
F-0.4347022549559471
ssS'SHERRIFF JOHN R'
p116
(dp117
g3
F-0.5416472638835655
sg4
F0.9984279381674119
sg5
F-0.46561690626725305
sg6
F0.6407451224692015
sg7
F-1.3213147625340265
sg8
F0.7437597807719559
sg9
F-0.43476534059333694
sg10
F0.0
sg11
F0.7477978826544927
sg12
F1.2305188129873097
sg13
F1.303406702197576
ssS'SHELBY REX'
p118
(dp119
g3
F-0.5416472638835655
sg4
F0.61535354983347
sg5
F-0.46561690626725305
sg6
F0.5236849125919809
sg7
F0.5185204078780491
sg8
F0.7094516619686745
sg9
F-0.43476534059333694
sg10
F1.0
sg11
F-1.0411251498819367
sg12
F-1.5690810425208523
sg13
F1.6428339809811903
ssS'LEMAISTRE CHARLES'
p120
(dp121
g3
F-0.5416472638835655
sg4
F-1.1180015626139308
sg5
F-0.46561690626725305
sg6
F-0.2415034306116188
sg7
F-1.3213147625340265
sg8
F0.35331969057584073
sg9
F-0.43476534059333694
sg10
F0.0
sg11
F-1.2102002055030494
sg12
F-0.03933147416811105
sg13
F-0.16919953101609733
ssS'DEFFNER JOSEPH M'
p122
(dp123
g3
F-0.5416472638835655
sg4
F0.8201437640162034
sg5
F-0.46561690626725305
sg6
F-0.5504682761592445
sg7
F0.7242790158163916
sg8
F-0.2997021407231302
sg9
F-0.43476534059333694
sg10
F0.0
sg11
F0.7477978826544927
sg12
F-0.3237322126584739
sg13
F-0.42560339934004177
ssS'KISHKILL JOSEPH G'
p124
(dp125
g3
F-0.5416472638835655
sg4
F-1.1180015626139308
sg5
F-0.46561690626725305
sg6
F0.11579402801120488
sg7
F1.1179252796473313
sg8
F-1.3673275855282496
sg9
F-0.43476534059333694
sg10
F0.0
sg11
F-1.265872830752863
sg12
F-0.03933147416811105
sg13
F-0.16919953101609733
ssS'WHALLEY LAWRENCE G'
p126
(dp127
g3
F-0.5416472638835655
sg4
F1.1379912496472746
sg5
F-0.46561690626725305
sg6
F1.014587007668695
sg7
F0.8445073946606639
sg8
F0.913075419299495
sg9
F-0.43476534059333694
sg10
F0.0
sg11
F0.7477978826544927
sg12
F2.2282026546265077
sg13
F-0.6108385476416006
ssS'HAYSLETT RODERICK J'
p128
(dp129
g3
F-0.5416472638835655
sg4
F-1.1180015626139308
sg5
F-0.46561690626725305
sg6
F-0.30255858949035636
sg7
F-1.3213147625340265
sg8
F-1.3673275855282496
sg9
F-0.43476534059333694
sg10
F0.0
sg11
F0.7477978826544927
sg12
F-0.29237946368586665
sg13
F-0.7447509766664148
ssS'MCCONNELL MICHAEL S'
p130
(dp131
g3
F-0.5416472638835655
sg4
F0.9373003691893488
sg5
F-0.46561690626725305
sg6
F0.6360604217199232
sg7
F0.9748913359108995
sg8
F0.7092135629267874
sg9
F-0.43476534059333694
sg10
F0.0
sg11
F0.7477978826544927
sg12
F1.2886705487279573
sg13
F-0.16919953101609733
ssS'DELAINEY DAVID W'
p132
(dp133
g3
F-0.5416472638835655
sg4
F1.1379912496472746
sg5
F-0.46561690626725305
sg6
F0.7178400169395386
sg7
F0.9974163050040741
sg8
F0.8071167153914794
sg9
F-0.43476534059333694
sg10
F1.0
sg11
F0.7477978826544927
sg12
F1.2264030666949453
sg13
F1.0426795429704354
ssS'SULLIVAN-SHAKLOVITZ COLLEEN'
p134
(dp135
g3
F2.096301407227588
sg4
F0.4909876215135467
sg5
F-0.46561690626725305
sg6
F0.2360403387652114
sg7
F-1.3213147625340265
sg8
F0.6608290517317992
sg9
F2.08680200615597
sg10
F0.0
sg11
F0.7477978826544927
sg12
F-0.03933147416811105
sg13
F-0.16919953101609733
ssS'WROBEL BRUCE'
p136
(dp137
g3
F-0.5416472638835655
sg4
F-1.1180015626139308
sg5
F-0.46561690626725305
sg6
F-0.5897291426641602
sg7
F-1.3213147625340265
sg8
F0.10449119123265718
sg9
F-0.43476534059333694
sg10
F0.0
sg11
F0.7477978826544927
sg12
F-0.03933147416811105
sg13
F-0.16919953101609733
ssS'LINDHOLM TOD A'
p138
(dp139
g3
F2.136293295907592
sg4
F0.61535354983347
sg5
F2.4308502421782627
sg6
F0.6297385563796809
sg7
F0.8437899812494715
sg8
F0.8381657197346084
sg9
F2.3278064490727637
sg10
F0.0
sg11
F0.7477978826544927
sg12
F-0.03933147416811105
sg13
F-0.16919953101609733
ssS'MEYER JEROME J'
p140
(dp141
g3
F-0.5416472638835655
sg4
F-1.1180015626139308
sg5
F-0.46561690626725305
sg6
F-1.9176209058014688
sg7
F-0.15286742463210187
sg8
F-1.3673275855282496
sg9
F-0.43476534059333694
sg10
F0.0
sg11
F-1.2442790735569762
sg12
F-0.03933147416811105
sg13
F-0.16919953101609733
ssS'LAY KENNETH L'
p142
(dp143
g3
F2.169565368874212
sg4
F1.3142821350219933
sg5
F2.450993985092766
sg6
F2.5620793079310804
sg7
F1.055897614388832
sg8
F1.7110835628387793
sg9
F2.4344340458766593
sg10
F1.0
sg11
F-1.3807947560847909
sg12
F1.4320652953946682
sg13
F1.7926410551647327
ssS'BUTTS ROBERT H'
p144
(dp145
g3
F-0.5416472638835655
sg4
F0.8629227257044125
sg5
F-0.46561690626725305
sg6
F-0.2374426383668223
sg7
F0.24135107559111044
sg8
F-1.3673275855282496
sg9
F-0.43476534059333694
sg10
F0.0
sg11
F-1.2935042968911845
sg12
F-0.03933147416811105
sg13
F-0.16919953101609733
ssS'OLSON CINDY K'
p146
(dp147
g3
F2.1553094210381953
sg4
F0.8629227257044125
sg5
F2.45089368737227
sg6
F0.5461657634834592
sg7
F0.8813356493383726
sg8
F0.7116143686915204
sg9
F2.4344020746937662
sg10
F0.0
sg11
F0.7477978826544927
sg12
F0.11163605892381448
sg13
F1.449428310196451
ssS'MCDONALD REBECCA'
p148
(dp149
g3
F-0.5416472638835655
sg4
F-1.1180015626139308
sg5
F-0.46561690626725305
sg6
F0.3350956361753219
sg7
F-1.3213147625340265
sg8
F0.5048026104009079
sg9
F-0.43476534059333694
sg10
F0.0
sg11
F0.7477978826544927
sg12
F-0.06773504677202336
sg13
F-0.0821340077980531
ssS'CUMBERLAND MICHAEL S'
p150
(dp151
g3
F-0.5416472638835655
sg4
F0.7046761024894569
sg5
F-0.46561690626725305
sg6
F-0.4695982147415362
sg7
F0.5106398022345714
sg8
F-1.3673275855282496
sg9
F-0.43476534059333694
sg10
F0.0
sg11
F0.7477978826544927
sg12
F-0.03933147416811105
sg13
F-0.16919953101609733
ssS'GAHN ROBERT S'
p152
(dp153
g3
F1.4170139738902507
sg4
F0.7891936529920558
sg5
F2.4411138299947575
sg6
F-0.3313002716180264
sg7
F0.7912209421053868
sg8
F-0.0035955708136857006
sg9
F2.4343046668541604
sg10
F0.0
sg11
F-0.8753710443643191
sg12
F-0.03933147416811105
sg13
F-0.16919953101609733
ssS'BADUM JAMES P'
p154
(dp155
g3
F1.5674156251031348
sg4
F-1.1180015626139308
sg5
F-0.46561690626725305
sg6
F-0.40135344391044947
sg7
F-0.032252861035385647
sg8
F0.2421367015877557
sg9
F-0.43476534059333694
sg10
F0.0
sg11
F0.7477978826544927
sg12
F-0.03933147416811105
sg13
F-0.16919953101609733
ssS'HERMANN ROBERT J'
p156
(dp157
g3
F-0.5416472638835655
sg4
F0.8496526415711952
sg5
F-0.46561690626725305
sg6
F-0.06222048218278774
sg7
F0.7784197380904883
sg8
F0.16996973999377848
sg9
F-0.43476534059333694
sg10
F0.0
sg11
F-1.3768665844871284
sg12
F-0.03933147416811105
sg13
F-0.16919953101609733
ssS'SCRIMSHAW MATTHEW'
p158
(dp159
g3
F-0.5416472638835655
sg4
F-1.1180015626139308
sg5
F-0.46561690626725305
sg6
F-0.011544546130741008
sg7
F-1.3213147625340265
sg8
F0.5055692045109664
sg9
F-0.43476534059333694
sg10
F0.0
sg11
F0.7477978826544927
sg12
F-0.03933147416811105
sg13
F-0.16919953101609733
ssS'GATHMANN WILLIAM D'
p160
(dp161
g3
F-0.5416472638835655
sg4
F-1.1180015626139308
sg5
F-0.46561690626725305
sg6
F0.40142654682391155
sg7
F-1.3213147625340265
sg8
F0.7309124862111165
sg9
F-0.43476534059333694
sg10
F0.0
sg11
F0.7477978826544927
sg12
F-0.03933147416811105
sg13
F-0.16919953101609733
ssS'HAEDICKE MARK E'
p162
(dp163
g3
F0.38651785219594387
sg4
F0.9460117720585818
sg5
F1.2159016938461402
sg6
F0.010876854894120052
sg7
F0.9492257020999056
sg8
F0.4491719107545737
sg9
F2.06844627038044
sg10
F0.0
sg11
F-1.4399617990741749
sg12
F1.0474481985334638
sg13
F-0.8283324994170272
ssS'BOWEN JR RAYMOND M'
p164
(dp165
g3
F-0.5416472638835655
sg4
F0.977572145030479
sg5
F-0.46561690626725305
sg6
F-0.4086631944461537
sg7
F0.8937091386827939
sg8
F-1.3673275855282496
sg9
F-0.43476534059333694
sg10
F1.0
sg11
F-0.845232820407954
sg12
F0.8482514727710384
sg13
F1.907497331415124
ssS'GILLIS JOHN'
p166
(dp167
g3
F-0.5416472638835655
sg4
F-1.1180015626139308
sg5
F-0.46561690626725305
sg6
F-0.7227945459095794
sg7
F-1.3213147625340265
sg8
F-0.39644072174456896
sg9
F-0.43476534059333694
sg10
F0.0
sg11
F0.7477978826544927
sg12
F-0.03933147416811105
sg13
F-0.16919953101609733
ssS'FITZGERALD JAY L'
p168
(dp169
g3
F-0.5416472638835655
sg4
F0.7184734576918246
sg5
F-0.46561690626725305
sg6
F0.31537283606830824
sg7
F0.5325023372133564
sg8
F0.47133057369942866
sg9
F-0.43476534059333694
sg10
F0.0
sg11
F0.7477978826544927
sg12
F-0.06354511232631736
sg13
F1.8583861725946536
ssS'MORAN MICHAEL P'
p170
(dp171
g3
F-0.5416472638835655
sg4
F-1.1180015626139308
sg5
F-0.46561690626725305
sg6
F-0.45035221140674253
sg7
F-1.3213147625340265
sg8
F-0.07104593474096622
sg9
F-0.43476534059333694
sg10
F0.0
sg11
F0.7477978826544927
sg12
F-1.3920502048439969
sg13
F-1.5170300344281538
ssS'REDMOND BRIAN L'
p172
(dp173
g3
F-0.5416472638835655
sg4
F-1.1180015626139308
sg5
F-0.46561690626725305
sg6
F1.175123916528628
sg7
F0.37618615590150095
sg8
F1.1723631414441686
sg9
F-0.43476534059333694
sg10
F0.0
sg11
F0.7477978826544927
sg12
F0.35131254854141364
sg13
F1.1711515933055823
ssS'BAZELIDES PHILIP J'
p174
(dp175
g3
F1.814293243559192
sg4
F-1.1180015626139308
sg5
F-0.46561690626725305
sg6
F0.3091613770527144
sg7
F-1.3213147625340265
sg8
F0.7051713526964737
sg9
F-0.43476534059333694
sg10
F0.0
sg11
F0.7477978826544927
sg12
F-0.03933147416811105
sg13
F-0.16919953101609733
ssS'BELDEN TIMOTHY N'
p176
(dp177
g3
F0.7113478071864964
sg4
F1.2537119107345374
sg5
F0.24708615372482537
sg6
F0.14626990097392029
sg7
F0.4287575651867229
sg8
F0.5647812818750012
sg9
F2.4270822376142713
sg10
F1.0
sg11
F-1.4808144518795632
sg12
F2.872065490176951
sg13
F1.1783826509821138
ssS'DURAN WILLIAM D'
p178
(dp179
g3
F-0.5416472638835655
sg4
F0.8629227257044125
sg5
F-0.46561690626725305
sg6
F0.3209740306609164
sg7
F0.5582824327119708
sg8
F0.6783124343283538
sg9
F-0.43476534059333694
sg10
F0.0
sg11
F0.7477978826544927
sg12
F-0.24741563276792264
sg13
F1.303406702197576
ssS'THORN TERENCE H'
p180
(dp181
g3
F2.169818498820983
sg4
F-1.1180015626139308
sg5
F2.4509820049449584
sg6
F0.8781508107577826
sg7
F0.7613918586324853
sg8
F1.0059867690212507
sg9
F-0.43476534059333694
sg10
F0.0
sg11
F0.7477978826544927
sg12
F-1.6755604163657183
sg13
F-1.5170300344281538
ssS'FASTOW ANDREW S'
p182
(dp183
g3
F-0.5416472638835655
sg4
F0.9701242883041774
sg5
F-0.46561690626725305
sg6
F0.36291349970244946
sg7
F0.8319459211468246
sg8
F-1.3673275855282496
sg9
F-0.43476534059333694
sg10
F1.0
sg11
F-1.4582430318722204
sg12
F-0.03933147416811105
sg13
F-0.16919953101609733
ssS'FOY JOE'
p184
(dp185
g3
F1.7167362037669165
sg4
F-1.1180015626139308
sg5
F-0.46561690626725305
sg6
F-0.3057689877986624
sg7
F-1.3213147625340265
sg8
F0.3091899494959358
sg9
F-0.43476534059333694
sg10
F0.0
sg11
F0.7477978826544927
sg12
F-2.6034144348552832
sg13
F-1.5170300344281538
ssS'CALGER CHRISTOPHER F'
p186
(dp187
g3
F-0.5416472638835655
sg4
F0.9623969543012637
sg5
F-0.46561690626725305
sg6
F-0.6178839763963068
sg7
F0.6710614851026697
sg8
F-1.3673275855282496
sg9
F-0.43476534059333694
sg10
F1.0
sg11
F-1.373155010324583
sg12
F1.2880031863743149
sg13
F0.882231998989756
ssS'RICE KENNETH D'
p188
(dp189
g3
F-0.5416472638835655
sg4
F1.029110644924212
sg5
F-0.46561690626725305
sg6
F1.9106231854173406
sg7
F0.7676691390642736
sg8
F1.5058923893209104
sg9
F-0.43476534059333694
sg10
F1.0
sg11
F-1.4972192500239188
sg12
F0.12157739828441547
sg13
F1.1737175131749897
ssS'KAMINSKI WINCENTY J'
p190
(dp191
g3
F-0.5416472638835655
sg4
F0.7434443614953254
sg5
F-0.46561690626725305
sg6
F0.09127761652199984
sg7
F0.9854319073876008
sg8
F0.534740226536847
sg9
F-0.43476534059333694
sg10
F0.0
sg11
F0.7477978826544927
sg12
F-0.03933147416811105
sg13
F1.0227537973884289
ssS'LOCKHART EUGENE E'
p192
(dp193
g3
F-0.5416472638835655
sg4
F-1.1180015626139308
sg5
F-0.46561690626725305
sg6
F-1.9176209058014688
sg7
F-1.3213147625340265
sg8
F-1.3673275855282496
sg9
F-0.43476534059333694
sg10
F0.0
sg11
F0.7477978826544927
sg12
F-0.03933147416811105
sg13
F-0.16919953101609733
ssS'COX DAVID'
p194
(dp195
g3
F-0.5416472638835655
sg4
F0.8753713930646646
sg5
F-0.46561690626725305
sg6
F-0.17543173011523303
sg7
F0.5844158886975621
sg8
F0.06839282390397124
sg9
F-0.43476534059333694
sg10
F0.0
sg11
F-1.2498792796952685
sg12
F-1.6884199966742914
sg13
F0.4407339257758529
ssS'OVERDYKE JR JERE C'
p196
(dp197
g3
F-0.5416472638835655
sg4
F-1.1180015626139308
sg5
F-0.46561690626725305
sg6
F1.1270418200182044
sg7
F0.45496206322198746
sg8
F1.0584594193954182
sg9
F-0.43476534059333694
sg10
F0.0
sg11
F0.7477978826544927
sg12
F-0.03933147416811105
sg13
F-0.16919953101609733
ssS'PEREIRA PAULO V. FERRAZ'
p198
(dp199
g3
F-0.5416472638835655
sg4
F-1.1180015626139308
sg5
F-0.46561690626725305
sg6
F-1.9176209058014688
sg7
F0.5854008427887005
sg8
F-1.3673275855282496
sg9
F-0.43476534059333694
sg10
F0.0
sg11
F-1.3139709099556325
sg12
F-0.03933147416811105
sg13
F-0.16919953101609733
ssS'STABLER FRANK'
p200
(dp201
g3
F-0.5416472638835655
sg4
F0.7854912241902042
sg5
F-0.46561690626725305
sg6
F-0.16362550316485136
sg7
F0.41297928671195855
sg8
F-1.3673275855282496
sg9
F-0.43476534059333694
sg10
F0.0
sg11
F0.7477978826544927
sg12
F-0.03933147416811105
sg13
F-0.16919953101609733
ssS'SKILLING JEFFREY K'
p202
(dp203
g3
F-0.5416472638835655
sg4
F1.2672357822758062
sg5
F-0.46561690626725305
sg6
F2.0255921748066665
sg7
F0.6019748169889976
sg8
F1.4958233494523885
sg9
F-0.43476534059333694
sg10
F1.0
sg11
F0.7477978826544927
sg12
F1.1883048877975786
sg13
F1.4122868280753063
ssS'BLAKE JR. NORMAN P'
p204
(dp205
g3
F-0.5416472638835655
sg4
F-1.1180015626139308
sg5
F-0.46561690626725305
sg6
F-1.9176209058014688
sg7
F-0.2744060823958028
sg8
F-1.3673275855282496
sg9
F-0.43476534059333694
sg10
F0.0
sg11
F-1.3216845579377505
sg12
F-0.03933147416811105
sg13
F-0.16919953101609733
ssS'SHERRICK JEFFREY B'
p206
(dp207
g3
F-0.5416472638835655
sg4
F-1.1180015626139308
sg5
F-0.46561690626725305
sg6
F0.3728620773571884
sg7
F-1.3213147625340265
sg8
F0.6734507488308366
sg9
F-0.43476534059333694
sg10
F0.0
sg11
F0.7477978826544927
sg12
F-0.2729336693203168
sg13
F1.9937896570253275
ssS'CHAN RONNIE'
p208
(dp209
g3
F-0.5416472638835655
sg4
F-1.1180015626139308
sg5
F-0.46561690626725305
sg6
F-1.9176209058014688
sg7
F-1.3213147625340265
sg8
F-1.3673275855282496
sg9
F-0.43476534059333694
sg10
F0.0
sg11
F-1.3123238895201808
sg12
F-0.03933147416811105
sg13
F-0.16919953101609733
ssS'GRAY RODNEY'
p210
(dp211
g3
F-0.5416472638835655
sg4
F-1.1180015626139308
sg5
F-0.46561690626725305
sg6
F-1.9176209058014688
sg7
F-1.3213147625340265
sg8
F-1.3673275855282496
sg9
F-0.43476534059333694
sg10
F0.0
sg11
F0.7477978826544927
sg12
F-0.03933147416811105
sg13
F-0.16919953101609733
ssS'PICKERING MARK R'
p212
(dp213
g3
F-0.5416472638835655
sg4
F0.6898226424773938
sg5
F-0.46561690626725305
sg6
F-0.9795137366275101
sg7
F0.6280676321791293
sg8
F-0.20943932304848822
sg9
F-0.43476534059333694
sg10
F0.0
sg11
F0.7477978826544927
sg12
F-0.056587512125014026
sg13
F-1.5170300344281538
ssS'NOLES JAMES L'
p214
(dp215
g3
F-0.5416472638835655
sg4
F-1.1180015626139308
sg5
F1.9935638333759846
sg6
F-0.2812642300371255
sg7
F-1.3213147625340265
sg8
F-1.3673275855282496
sg9
F-0.43476534059333694
sg10
F0.0
sg11
F0.7477978826544927
sg12
F-0.03933147416811105
sg13
F-0.16919953101609733
ssS'KEAN STEVEN J'
p216
(dp217
g3
F-0.5416472638835655
sg4
F0.9186774983025119
sg5
F-0.46561690626725305
sg6
F1.0219057609989555
sg7
F0.7270791036021357
sg8
F0.7712342116269495
sg9
F-0.43476534059333694
sg10
F0.0
sg11
F0.7477978826544927
sg12
F2.0978316043605685
sg13
F-0.37392656033299043
ssS'HUGHES JAMES A'
p218
(dp219
g3
F-0.5416472638835655
sg4
F-1.1180015626139308
sg5
F-0.46561690626725305
sg6
F0.14924427382843952
sg7
F-1.3213147625340265
sg8
F0.5040070138080838
sg9
F-0.43476534059333694
sg10
F0.0
sg11
F0.7477978826544927
sg12
F-0.2633104686985825
sg13
F0.6783068672090139
ssS'FOWLER PEGGY'
p220
(dp221
g3
F-0.5416472638835655
sg4
F-1.1180015626139308
sg5
F-0.46561690626725305
sg6
F0.3862613320278473
sg7
F-1.3213147625340265
sg8
F0.6531341830356658
sg9
F-0.43476534059333694
sg10
F0.0
sg11
F0.7477978826544927
sg12
F-2.3404219918063034
sg13
F-1.5170300344281538
ssS'WASAFF GEORGE'
p222
(dp223
g3
F1.7461386949182218
sg4
F0.7046761024894569
sg5
F1.8092033597167403
sg6
F0.428255177545144
sg7
F-1.3213147625340265
sg8
F0.7168945126306
sg9
F1.849609028127428
sg10
F0.0
sg11
F-1.416640224740219
sg12
F-0.7427031228126894
sg13
F1.2283613209552926
ssS'WHITE JR THOMAS E'
p224
(dp225
g3
F-0.5416472638835655
sg4
F0.7655883989683419
sg5
F-0.46561690626725305
sg6
F1.6140776630797076
sg7
F0.9748385128277786
sg8
F0.6474048807379138
sg9
F-0.43476534059333694
sg10
F0.0
sg11
F0.7477978826544927
sg12
F-0.03933147416811105
sg13
F-0.16919953101609733
ssS'CHRISTODOULOU DIOMEDES'
p226
(dp227
g3
F-0.5416472638835655
sg4
F-1.1180015626139308
sg5
F-0.46561690626725305
sg6
F1.0144634060437416
sg7
F-1.3213147625340265
sg8
F1.050013884220679
sg9
F-0.43476534059333694
sg10
F0.0
sg11
F0.7477978826544927
sg12
F-0.03933147416811105
sg13
F-0.16919953101609733
ssS'ALLEN PHILLIP K'
p228
(dp229
g3
F0.9456722356692469
sg4
F1.206000913336518
sg5
F-0.010120240247469069
sg6
F0.3455563440020088
sg7
F0.3583233142835897
sg8
F0.7270043084900174
sg9
F2.39659566370454
sg10
F0.0
sg11
F-1.492128297787473
sg12
F0.6885174746405155
sg13
F-0.8637154465234754
ssS'SHARP VICTORIA T'
p230
(dp231
g3
F1.5911323089980671
sg4
F0.8201437640162034
sg5
F2.3057080503669543
sg6
F-0.17654503842915478
sg7
F1.1179323204865432
sg8
F0.26212250771319756
sg9
F2.431592426187955
sg10
F0.0
sg11
F0.7477978826544927
sg12
F1.4729906339537404
sg13
F-0.5940287851889842
ssS'JAEDICKE ROBERT'
p232
(dp233
g3
F-0.5416472638835655
sg4
F-1.1180015626139308
sg5
F-0.46561690626725305
sg6
F-0.225555341034892
sg7
F-1.3213147625340265
sg8
F0.36415786760210517
sg9
F-0.43476534059333694
sg10
F0.0
sg11
F-1.2102002055030494
sg12
F-0.03933147416811105
sg13
F-0.16919953101609733
ssS'WINOKUR JR. HERBERT S'
p234
(dp235
g3
F-0.5416472638835655
sg4
F-1.1180015626139308
sg5
F-0.46561690626725305
sg6
F-1.9176209058014688
sg7
F-0.2517549492161971
sg8
F-1.3673275855282496
sg9
F-0.43476534059333694
sg10
F0.0
sg11
F-1.2102002055030494
sg12
F-0.03933147416811105
sg13
F-0.16919953101609733
ssS'BROWN MICHAEL'
p236
(dp237
g3
F-0.5416472638835655
sg4
F-1.1180015626139308
sg5
F-0.46561690626725305
sg6
F-1.9176209058014688
sg7
F0.7853849726849562
sg8
F-1.3673275855282496
sg9
F-0.43476534059333694
sg10
F0.0
sg11
F0.7477978826544927
sg12
F-0.011446253601588012
sg13
F-0.9683482254661335
ssS'MCCLELLAN GEORGE'
p238
(dp239
g3
F-0.5416472638835655
sg4
F0.8981786136248762
sg5
F-0.46561690626725305
sg6
F0.07900579022407911
sg7
F1.407587709486086
sg8
F0.403421892272751
sg9
F-0.43476534059333694
sg10
F0.0
sg11
F-1.3278005365098513
sg12
F0.7432451676275544
sg13
F-1.5170300344281538
ssS'CARTER REBECCA C'
p240
(dp241
g3
F-0.5416472638835655
sg4
F0.6898226424773938
sg5
F-0.46561690626725305
sg6
F-1.9176209058014688
sg7
F-1.3213147625340265
sg8
F-1.3673275855282496
sg9
F-0.43476534059333694
sg10
F0.0
sg11
F-1.3433742079031195
sg12
F-1.1294871830736715
sg13
F1.821303916282538
ssS'REYNOLDS LAWRENCE'
p242
(dp243
g3
F2.168424766649542
sg4
F0.4909876215135467
sg5
F2.4456229156187184
sg6
F0.8033944416082112
sg7
F0.20853187603619183
sg8
F0.9850634437672199
sg9
F2.4187462803584636
sg10
F0.0
sg11
F-1.3571151842014173
sg12
F-0.03933147416811105
sg13
F-0.16919953101609733
ssS'DIMICHELE RICHARD G'
p244
(dp245
g3
F-0.5416472638835655
sg4
F0.9186774983025119
sg5
F-0.46561690626725305
sg6
F1.2086071391345754
sg7
F0.6710027440386457
sg8
F1.2009530743708616
sg9
F-0.43476534059333694
sg10
F0.0
sg11
F0.7477978826544927
sg12
F-0.03933147416811105
sg13
F-0.16919953101609733
ssS'BHATNAGAR SANJAY'
p246
(dp247
g3
F-0.5416472638835655
sg4
F-1.1180015626139308
sg5
F-0.46561690626725305
sg6
F1.6287351327856672
sg7
F1.1882485879078548
sg8
F1.4175527569083135
sg9
F-0.43476534059333694
sg10
F0.0
sg11
F0.7477978826544927
sg12
F-0.48102240671807867
sg13
F-0.7698369108787503
ssS'BUCHANAN HAROLD G'
p248
(dp249
g3
F-0.5416472638835655
sg4
F0.7854912241902042
sg5
F-0.46561690626725305
sg6
F0.10757956650236528
sg7
F-0.43704098016386167
sg8
F0.5271101356475854
sg9
F-0.43476534059333694
sg10
F0.0
sg11
F0.7477978826544927
sg12
F-2.118077020477615
sg13
F-1.5170300344281538
ssS'YEAP SOON'
p250
(dp251
g3
F-0.5416472638835655
sg4
F-1.1180015626139308
sg5
F-0.46561690626725305
sg6
F-0.49298889896909476
sg7
F0.8264313121323659
sg8
F0.17614257755249274
sg9
F-0.43476534059333694
sg10
F0.0
sg11
F0.7477978826544927
sg12
F-0.03933147416811105
sg13
F-0.16919953101609733
ssS'MURRAY JULIA H'
p252
(dp253
g3
F-0.5416472638835655
sg4
F0.7434443614953254
sg5
F-0.46561690626725305
sg6
F-0.10537359449082428
sg7
F0.8428380477419309
sg8
F0.3459540757480738
sg9
F-0.43476534059333694
sg10
F0.0
sg11
F0.7477978826544927
sg12
F-0.6153647207986904
sg13
F-0.5882872562444733
ssS'GARLAND C KEVIN'
p254
(dp255
g3
F-0.5416472638835655
sg4
F0.8870963143075477
sg5
F-0.46561690626725305
sg6
F0.055699363987435954
sg7
F0.778781682364333
sg8
F0.4603255694401055
sg9
F-0.43476534059333694
sg10
F0.0
sg11
F0.7477978826544927
sg12
F-1.1911449914606713
sg13
F1.9460233696066145
ssS'DODSON KEITH'
p256
(dp257
g3
F-0.5416472638835655
sg4
F0.42840837977242946
sg5
F-0.46561690626725305
sg6
F-1.9176209058014688
sg7
F0.5880876954850784
sg8
F-1.3673275855282496
sg9
F-0.43476534059333694
sg10
F0.0
sg11
F0.7477978826544927
sg12
F-1.4516139486005455
sg13
F1.1322250910863543
ssS'YEAGER F SCOTT'
p258
(dp259
g3
F-0.5416472638835655
sg4
F-1.1180015626139308
sg5
F-0.46561690626725305
sg6
F1.4443602460908171
sg7
F0.8186140198028056
sg8
F1.2056288071936634
sg9
F-0.43476534059333694
sg10
F1.0
sg11
F0.7477978826544927
sg12
F-0.03933147416811105
sg13
F-0.16919953101609733
ssS'HIRKO JOSEPH'
p260
(dp261
g3
F2.170031543807397
sg4
F-1.1180015626139308
sg5
F-0.46561690626725305
sg6
F2.159031003118485
sg7
F0.9583308267522003
sg8
F1.6691339976935156
sg9
F-0.43476534059333694
sg10
F1.0
sg11
F0.7477978826544927
sg12
F-0.03933147416811105
sg13
F-0.16919953101609733
ssS'DIETRICH JANET R'
p262
(dp263
g3
F-0.5416472638835655
sg4
F0.8201437640162034
sg5
F-0.46561690626725305
sg6
F0.3812577852281637
sg7
F-0.03306766118069895
sg8
F0.6964095677781866
sg9
F-0.43476534059333694
sg10
F0.0
sg11
F0.7477978826544927
sg12
F1.0881413235186836
sg13
F1.1737175131749897
ssS'DERRICK JR. JAMES V'
p264
(dp265
g3
F-0.5416472638835655
sg4
F0.8753713930646646
sg5
F-0.46561690626725305
sg6
F1.2470915604868005
sg7
F0.7987925913790692
sg8
F1.2258830217074717
sg9
F-0.43476534059333694
sg10
F0.0
sg11
F-1.4547804479681326
sg12
F0.6831366764181558
sg13
F-1.0176074497308292
ssS'FREVERT MARK A'
p266
(dp267
g3
F1.6365402176332735
sg4
F1.0558524555816968
sg5
F2.04937510733239
sg6
F1.5890180004700674
sg7
F1.0011151721002303
sg8
F1.2817977655551955
sg9
F1.6570358606514364
sg10
F0.0
sg11
F-1.4956484333176145
sg12
F1.7627454185028346
sg13
F1.440108611531975
ssS'PAI LOU L'
p268
(dp269
g3
F-0.5416472638835655
sg4
F0.9186774983025119
sg5
F-0.46561690626725305
sg6
F1.9534908787030438
sg7
F0.6323386217024303
sg8
F1.4154458947057846
sg9
F-0.43476534059333694
sg10
F0.0
sg11
F0.7477978826544927
sg12
F-0.03933147416811105
sg13
F-0.16919953101609733
ssS'BAY FRANKLIN R'
p270
(dp271
g3
F-0.5416472638835655
sg4
F0.7434443614953254
sg5
F1.9473732320188626
sg6
F-0.8006604955975941
sg7
F1.1609940283706286
sg8
F-1.3673275855282496
sg9
F2.4020716338861927
sg10
F0.0
sg11
F-1.357606779868576
sg12
F-0.03933147416811105
sg13
F-0.16919953101609733
ssS'MCCARTY DANNY J'
p272
(dp273
g3
F-0.5416472638835655
sg4
F-1.1180015626139308
sg5
F-0.46561690626725305
sg6
F-0.011874399350549429
sg7
F-1.3213147625340265
sg8
F0.47129767152630864
sg9
F-0.43476534059333694
sg10
F0.0
sg11
F0.7477978826544927
sg12
F-0.39919980691397666
sg13
F-1.295398898704852
ssS'FUGH JOHN L'
p274
(dp275
g3
F1.9541146906819145
sg4
F-1.1180015626139308
sg5
F-0.46561690626725305
sg6
F-0.5199519912125508
sg7
F-1.3213147625340265
sg8
F0.1563843045537149
sg9
F-0.43476534059333694
sg10
F0.0
sg11
F0.7477978826544927
sg12
F-0.03933147416811105
sg13
F-0.16919953101609733
ssS'FALLON JAMES B'
p276
(dp277
g3
F-0.5416472638835655
sg4
F1.1008812168913664
sg5
F-0.46561690626725305
sg6
F0.49018996231692613
sg7
F1.0399118333971944
sg8
F0.5611934952590588
sg9
F-0.43476534059333694
sg10
F0.0
sg11
F0.7477978826544927
sg12
F0.8573001052451971
sg13
F1.8514836151337875
ssS'KOENIG MARK E'
p278
(dp279
g3
F-0.5416472638835655
sg4
F0.8496526415711952
sg5
F-0.46561690626725305
sg6
F0.3951421137572938
sg7
F1.1541122324953281
sg8
F0.47410052683675574
sg9
F-0.43476534059333694
sg10
F1.0
sg11
F0.7477978826544927
sg12
F1.34271747827431
sg13
F1.285680177876406
ssS'SAVAGE FRANK'
p280
(dp281
g3
F-0.5416472638835655
sg4
F-1.1180015626139308
sg5
F-0.46561690626725305
sg6
F-1.9176209058014688
sg7
F-1.3213147625340265
sg8
F-1.3673275855282496
sg9
F-0.43476534059333694
sg10
F0.0
sg11
F-1.3258466388164405
sg12
F-0.03933147416811105
sg13
F-0.16919953101609733
ssS'IZZO LAWRENCE L'
p282
(dp283
g3
F-0.5416472638835655
sg4
F-1.1180015626139308
sg5
F-0.46561690626725305
sg6
F0.9885536592206711
sg7
F0.5872303927208529
sg8
F0.7908197111222682
sg9
F-0.43476534059333694
sg10
F0.0
sg11
F0.7477978826544927
sg12
F-0.5307328066292429
sg13
F1.357330953235009
ssS'TILNEY ELIZABETH A'
p284
(dp285
g3
F-0.5416472638835655
sg4
F0.6898226424773938
sg5
F-0.46561690626725305
sg6
F0.16806324273528436
sg7
F-1.3213147625340265
sg8
F0.4418356093281259
sg9
F-0.43476534059333694
sg10
F0.0
sg11
F-1.415902594053512
sg12
F-0.649177929606419
sg13
F1.9243618653040662
ssS'MARTIN AMANDA K'
p286
(dp287
g3
F2.158291474973761
sg4
F-1.1180015626139308
sg5
F-0.46561690626725305
sg6
F0.431525133924983
sg7
F0.20164112979721405
sg8
F0.7779730187435226
sg9
F-0.43476534059333694
sg10
F0.0
sg11
F0.7477978826544927
sg12
F-0.45502075090239197
sg13
F-1.5170300344281538
ssS'BUY RICHARD B'
p288
(dp289
g3
F1.9848710310176896
sg4
F0.8981786136248762
sg5
F2.3573995358885327
sg6
F0.6918697459357595
sg7
F-1.3213147625340265
sg8
F0.837414024282443
sg9
F2.390991712639083
sg10
F0.0
sg11
F-1.4254923576176837
sg12
F1.3827255929294353
sg13
F-0.217764308313943
ssS'GRAMM WENDY L'
p290
(dp291
g3
F-0.5416472638835655
sg4
F-1.1180015626139308
sg5
F-0.46561690626725305
sg6
F-1.9176209058014688
sg7
F-1.3213147625340265
sg8
F-1.3673275855282496
sg9
F-0.43476534059333694
sg10
F0.0
sg11
F0.7477978826544927
sg12
F-0.03933147416811105
sg13
F-0.16919953101609733
ssS'CAUSEY RICHARD A'
p292
(dp293
g3
F-0.5416472638835655
sg4
F0.9186774983025119
sg5
F-0.46561690626725305
sg6
F0.5253912812461491
sg7
F0.617251924121976
sg8
F-1.3673275855282496
sg9
F-0.43476534059333694
sg10
F1.0
sg11
F-1.3667063928611347
sg12
F0.841644491931039
sg13
F1.2812686685420824
ssS'TAYLOR MITCHELL S'
p294
(dp295
g3
F2.1417691362443723
sg4
F0.8201437640162034
sg5
F2.429823640999866
sg6
F0.7371827715682854
sg7
F-1.3213147625340265
sg8
F0.9036460253086542
sg9
F2.4287513767462965
sg10
F0.0
sg11
F0.7477978826544927
sg12
F-0.8317451470550516
sg13
F-1.5170300344281538
ssS'DONAHUE JR JEFFREY M'
p296
(dp297
g3
F-0.5416472638835655
sg4
F0.8753713930646646
sg5
F-0.46561690626725305
sg6
F0.1346161514220681
sg7
F1.0413414485241486
sg8
F0.5077204263240317
sg9
F-0.43476534059333694
sg10
F0.0
sg11
F-1.3807947560847909
sg12
F0.0033109494150513983
sg13
F1.8583861725946536
ssS'GLISAN JR BEN F'
p298
(dp299
g3
F-0.5416472638835655
sg4
F0.8201437640162034
sg5
F-0.46561690626725305
sg6
F-0.0016413148850940881
sg7
F1.1507109835449754
sg8
F0.3362981053342696
sg9
F-0.43476534059333694
sg10
F1.0
sg11
F0.7477978826544927
sg12
F0.13391832380592333
sg13
F1.676696193617044
ss.