(lp0
S'poi'
p1
aS'bonus'
p2
aS'deferred_income'
p3
aS'expenses'
p4
aS'exercised_stock_options'
p5
aS'total_stock_value'
p6
aS'shared_receipt_with_poi'
p7
aS'bonus_deferral_payments_rate'
p8
aS'rest_stock_deferral_payments_rate'
p9
aS'exer_stock_options_deferral_payments_rate'
p10
aS'toPOI_rate'
p11
a.